

Microchip MPLAB XC8 Assembler V3.00 build 20241204225717 
                                                                                               Wed Jul 02 19:59:06 2025

Microchip MPLAB XC8 C Compiler v3.00 (Free license) build 20241204225717 Og1 
     1                           	processor	18F1330
     2                           	fnconf	rparam,??,?,0
     3                           	pagewidth 120
     4                           	opt	flic
     5                           	psect	mediumconst,global,reloc=2,class=MEDIUMCONST,space=0,delta=1,noexec
     6                           	psect	cinit,global,reloc=2,class=CODE,space=0,delta=1
     7                           	psect	bssCOMRAM,global,class=COMRAM,space=1,delta=1,lowdata,noexec
     8                           	psect	cstackCOMRAM,global,class=COMRAM,space=1,delta=1,lowdata,noexec
     9                           	psect	text0,global,reloc=2,class=CODE,space=0,delta=1
    10                           	psect	text1,global,reloc=2,class=CODE,space=0,delta=1,group=1
    11                           	psect	text2,global,reloc=2,class=CODE,space=0,delta=1,group=1
    12                           	psect	text3,global,reloc=2,class=CODE,space=0,delta=1,group=1
    13                           	psect	text4,global,reloc=2,class=CODE,space=0,delta=1,group=1
    14                           	psect	text5,global,reloc=2,class=CODE,space=0,delta=1,group=1
    15                           	psect	text6,global,reloc=2,class=CODE,space=0,delta=1,group=1
    16                           	psect	text7,global,reloc=2,class=CODE,space=0,delta=1,group=1
    17                           	psect	text8,global,reloc=2,class=CODE,space=0,delta=1
    18                           	psect	text9,global,reloc=2,class=CODE,space=0,delta=1,group=1
    19                           	psect	text10,global,reloc=2,class=CODE,space=0,delta=1
    20                           	psect	text11,global,reloc=2,class=CODE,space=0,delta=1
    21                           	psect	text12,global,reloc=2,class=CODE,space=0,delta=1
    22                           	psect	intcode,global,reloc=2,class=CODE,space=0,delta=1
    23                           	psect	intsave_regs,global,class=BIGRAM,space=1,delta=1,noexec
    24                           	psect	rparam,global,class=COMRAM,space=1,delta=1,noexec
    25                           	psect	temp,global,ovrld,common,class=COMRAM,space=1,delta=1,lowdata
    26                           	psect	config,global,abs,ovrld,class=CONFIG,space=4,delta=1,noexec
    27   000000                     
    28                           ; Generated 17/10/2023 GMT
    29                           ; 
    30                           ; Copyright © 2023, Microchip Technology Inc. and its subsidiaries ("Microchip")
    31                           ; All rights reserved.
    32                           ; 
    33                           ; This software is developed by Microchip Technology Inc. and its subsidiaries ("Microch
      +                          ip").
    34                           ; 
    35                           ; Redistribution and use in source and binary forms, with or without modification, are
    36                           ; permitted provided that the following conditions are met:
    37                           ; 
    38                           ;     1. Redistributions of source code must retain the above copyright notice, this lis
      +                          t of
    39                           ;        conditions and the following disclaimer.
    40                           ; 
    41                           ;     2. Redistributions in binary form must reproduce the above copyright notice, this 
      +                          list
    42                           ;        of conditions and the following disclaimer in the documentation and/or other
    43                           ;        materials provided with the distribution. Publication is not required when
    44                           ;        this file is used in an embedded application.
    45                           ; 
    46                           ;     3. Microchip's name may not be used to endorse or promote products derived from th
      +                          is
    47                           ;        software without specific prior written permission.
    48                           ; 
    49                           ; THIS SOFTWARE IS PROVIDED BY MICROCHIP "AS IS" AND ANY EXPRESS OR IMPLIED WARRANTIES,
    50                           ; INCLUDING, BUT NOT LIMITED TO, THE IMPLIED WARRANTIES OF MERCHANTABILITY AND FITNESS F
      +                          OR
    51                           ; PURPOSE ARE DISCLAIMED.  IN NO EVENT SHALL MICROCHIP BE LIABLE FOR ANY DIRECT, INDIREC
      +                          T,
    52                           ; INCIDENTAL, SPECIAL, EXEMPLARY, OR CONSEQUENTIAL DAMAGES (INCLUDING BUT NOT LIMITED TO
    53                           ; PROCUREMENT OF SUBSTITUTE GOODS OR SERVICES; LOSS OF USE, DATA OR PROFITS; OR BUSINESS
    54                           ; INTERRUPTION) HOWSOEVER CAUSED AND ON ANY THEORY OF LIABILITY, WHETHER IN CONTRACT, ST
      +                          RICT
    55                           ; LIABILITY, OR TORT (INCLUDING NEGLIGENCE OR OTHERWISE) ARISING IN ANY WAY OUT OF THE U
      +                          SE OF
    56                           ; THIS SOFTWARE, EVEN IF ADVISED OF THE POSSIBILITY OF SUCH DAMAGE.
    57                           ; 
    58                           ; 
    59                           ; Code-generator required, PIC18F1330 Definitions
    60                           ; 
    61                           ; SFR Addresses
    62   000FE0                     bsr             equ	4064
    63   000FE9                     fsr0            equ	4073
    64   000FEA                     fsr0h           equ	4074
    65   000FE9                     fsr0l           equ	4073
    66   000FE1                     fsr1            equ	4065
    67   000FE2                     fsr1h           equ	4066
    68   000FE1                     fsr1l           equ	4065
    69   000FD9                     fsr2            equ	4057
    70   000FDA                     fsr2h           equ	4058
    71   000FD9                     fsr2l           equ	4057
    72   000FEF                     indf0           equ	4079
    73   000FE7                     indf1           equ	4071
    74   000FDF                     indf2           equ	4063
    75   000FF2                     intcon          equ	4082
    76   000000                     nvmcon          equ	0
    77   000FF9                     pcl             equ	4089
    78   000FFA                     pclath          equ	4090
    79   000FFB                     pclatu          equ	4091
    80   000FEB                     plusw0          equ	4075
    81   000FE3                     plusw1          equ	4067
    82   000FDB                     plusw2          equ	4059
    83   000FED                     postdec0        equ	4077
    84   000FE5                     postdec1        equ	4069
    85   000FDD                     postdec2        equ	4061
    86   000FEE                     postinc0        equ	4078
    87   000FE6                     postinc1        equ	4070
    88   000FDE                     postinc2        equ	4062
    89   000FEC                     preinc0         equ	4076
    90   000FE4                     preinc1         equ	4068
    91   000FDC                     preinc2         equ	4060
    92   000FF3                     prod            equ	4083
    93   000FF4                     prodh           equ	4084
    94   000FF3                     prodl           equ	4083
    95   000FD8                     status          equ	4056
    96   000FF5                     tablat          equ	4085
    97   000FF6                     tblptr          equ	4086
    98   000FF7                     tblptrh         equ	4087
    99   000FF6                     tblptrl         equ	4086
   100   000FF8                     tblptru         equ	4088
   101   000FFD                     tosl            equ	4093
   102   000FE8                     wreg            equ	4072
   103   000F80                     PORTA           equ	3968	;# 
   104   000F81                     PORTB           equ	3969	;# 
   105   000F82                     OVDCONS         equ	3970	;# 
   106   000F83                     OVDCOND         equ	3971	;# 
   107   000F84                     DTCON           equ	3972	;# 
   108   000F85                     PWMCON1         equ	3973	;# 
   109   000F86                     PWMCON0         equ	3974	;# 
   110   000F87                     SEVTCMPH        equ	3975	;# 
   111   000F88                     SEVTCMPL        equ	3976	;# 
   112   000F89                     LATA            equ	3977	;# 
   113   000F8A                     LATB            equ	3978	;# 
   114   000F8B                     FLTCONFIG       equ	3979	;# 
   115   000F8C                     PDC2H           equ	3980	;# 
   116   000F8D                     PDC2L           equ	3981	;# 
   117   000F8E                     PDC1H           equ	3982	;# 
   118   000F8F                     PDC1L           equ	3983	;# 
   119   000F90                     PDC0H           equ	3984	;# 
   120   000F91                     PDC0L           equ	3985	;# 
   121   000F92                     TRISA           equ	3986	;# 
   122   000F92                     DDRA            equ	3986	;# 
   123   000F93                     TRISB           equ	3987	;# 
   124   000F93                     DDRB            equ	3987	;# 
   125   000F95                     PTPERH          equ	3989	;# 
   126   000F96                     PTPERL          equ	3990	;# 
   127   000F97                     PTMRH           equ	3991	;# 
   128   000F98                     PTMRL           equ	3992	;# 
   129   000F99                     PTCON1          equ	3993	;# 
   130   000F9A                     PTCON0          equ	3994	;# 
   131   000F9B                     OSCTUNE         equ	3995	;# 
   132   000F9D                     PIE1            equ	3997	;# 
   133   000F9E                     PIR1            equ	3998	;# 
   134   000F9F                     IPR1            equ	3999	;# 
   135   000FA0                     PIE2            equ	4000	;# 
   136   000FA1                     PIR2            equ	4001	;# 
   137   000FA2                     IPR2            equ	4002	;# 
   138   000FA3                     PIE3            equ	4003	;# 
   139   000FA4                     PIR3            equ	4004	;# 
   140   000FA5                     IPR3            equ	4005	;# 
   141   000FA6                     EECON1          equ	4006	;# 
   142   000FA7                     EECON2          equ	4007	;# 
   143   000FA8                     EEDATA          equ	4008	;# 
   144   000FA9                     EEADR           equ	4009	;# 
   145   000FAB                     RCSTA           equ	4011	;# 
   146   000FAB                     RCSTA1          equ	4011	;# 
   147   000FAC                     TXSTA           equ	4012	;# 
   148   000FAC                     TXSTA1          equ	4012	;# 
   149   000FAD                     TXREG           equ	4013	;# 
   150   000FAD                     TXREG1          equ	4013	;# 
   151   000FAE                     RCREG           equ	4014	;# 
   152   000FAE                     RCREG1          equ	4014	;# 
   153   000FAF                     SPBRG           equ	4015	;# 
   154   000FAF                     SPBRG1          equ	4015	;# 
   155   000FB0                     SPBRGH          equ	4016	;# 
   156   000FB4                     CMCON           equ	4020	;# 
   157   000FB5                     CVRCON          equ	4021	;# 
   158   000FB8                     BAUDCON         equ	4024	;# 
   159   000FB8                     BAUDCTL         equ	4024	;# 
   160   000FC0                     ADCON2          equ	4032	;# 
   161   000FC1                     ADCON1          equ	4033	;# 
   162   000FC2                     ADCON0          equ	4034	;# 
   163   000FC3                     ADRES           equ	4035	;# 
   164   000FC3                     ADRESL          equ	4035	;# 
   165   000FC4                     ADRESH          equ	4036	;# 
   166   000FCD                     T1CON           equ	4045	;# 
   167   000FCE                     TMR1            equ	4046	;# 
   168   000FCE                     TMR1L           equ	4046	;# 
   169   000FCF                     TMR1H           equ	4047	;# 
   170   000FD0                     RCON            equ	4048	;# 
   171   000FD1                     WDTCON          equ	4049	;# 
   172   000FD2                     LVDCON          equ	4050	;# 
   173   000FD3                     OSCCON          equ	4051	;# 
   174   000FD5                     T0CON           equ	4053	;# 
   175   000FD6                     TMR0            equ	4054	;# 
   176   000FD6                     TMR0L           equ	4054	;# 
   177   000FD7                     TMR0H           equ	4055	;# 
   178   000FD8                     STATUS          equ	4056	;# 
   179   000FD9                     FSR2            equ	4057	;# 
   180   000FD9                     FSR2L           equ	4057	;# 
   181   000FDA                     FSR2H           equ	4058	;# 
   182   000FDB                     PLUSW2          equ	4059	;# 
   183   000FDC                     PREINC2         equ	4060	;# 
   184   000FDD                     POSTDEC2        equ	4061	;# 
   185   000FDE                     POSTINC2        equ	4062	;# 
   186   000FDF                     INDF2           equ	4063	;# 
   187   000FE0                     BSR             equ	4064	;# 
   188   000FE1                     FSR1            equ	4065	;# 
   189   000FE1                     FSR1L           equ	4065	;# 
   190   000FE2                     FSR1H           equ	4066	;# 
   191   000FE3                     PLUSW1          equ	4067	;# 
   192   000FE4                     PREINC1         equ	4068	;# 
   193   000FE5                     POSTDEC1        equ	4069	;# 
   194   000FE6                     POSTINC1        equ	4070	;# 
   195   000FE7                     INDF1           equ	4071	;# 
   196   000FE8                     WREG            equ	4072	;# 
   197   000FE9                     FSR0            equ	4073	;# 
   198   000FE9                     FSR0L           equ	4073	;# 
   199   000FEA                     FSR0H           equ	4074	;# 
   200   000FEB                     PLUSW0          equ	4075	;# 
   201   000FEC                     PREINC0         equ	4076	;# 
   202   000FED                     POSTDEC0        equ	4077	;# 
   203   000FEE                     POSTINC0        equ	4078	;# 
   204   000FEF                     INDF0           equ	4079	;# 
   205   000FF0                     INTCON3         equ	4080	;# 
   206   000FF1                     INTCON2         equ	4081	;# 
   207   000FF2                     INTCON          equ	4082	;# 
   208   000FF3                     PROD            equ	4083	;# 
   209   000FF3                     PRODL           equ	4083	;# 
   210   000FF4                     PRODH           equ	4084	;# 
   211   000FF5                     TABLAT          equ	4085	;# 
   212   000FF6                     TBLPTR          equ	4086	;# 
   213   000FF6                     TBLPTRL         equ	4086	;# 
   214   000FF7                     TBLPTRH         equ	4087	;# 
   215   000FF8                     TBLPTRU         equ	4088	;# 
   216   000FF9                     PCLAT           equ	4089	;# 
   217   000FF9                     PC              equ	4089	;# 
   218   000FF9                     PCL             equ	4089	;# 
   219   000FFA                     PCLATH          equ	4090	;# 
   220   000FFB                     PCLATU          equ	4091	;# 
   221   000FFC                     STKPTR          equ	4092	;# 
   222   000FFD                     TOS             equ	4093	;# 
   223   000FFD                     TOSL            equ	4093	;# 
   224   000FFE                     TOSH            equ	4094	;# 
   225   000FFF                     TOSU            equ	4095	;# 
   226                           
   227                           	psect	mediumconst
   228   001E92                     __pmediumconst:
   229                           	callstack 0
   230   001E92  00                 	db	0
   231   001E93                     _sine_table:
   232                           	callstack 0
   233   001E93  0000               	dw	0
   234   001E95  0000               	dw	0
   235   001E97  F77F               	dw	63359
   236   001E99  3C8E               	dw	15502
   237   001E9B  F241               	dw	62017
   238   001E9D  3D0E               	dw	15630
   239   001E9F  5E46               	dw	24134
   240   001EA1  3D56               	dw	15702
   241   001EA3  DC3C               	dw	56380
   242   001EA5  3D8E               	dw	15758
   243   001EA7  7ED8               	dw	32472
   244   001EA9  3DB2               	dw	15794
   245   001EAB  12C7               	dw	4807
   246   001EAD  3DD6               	dw	15830
   247   001EAF  9674               	dw	38516
   248   001EB1  3DF9               	dw	15865
   249   001EB3  835E               	dw	33630
   250   001EB5  3E0E               	dw	15886
   251   001EB7  303C               	dw	12348
   252   001EB9  3E20               	dw	15904
   253   001EBB  D0C8               	dw	53448
   254   001EBD  3E31               	dw	15921
   255   001EBF  636F               	dw	25455
   256   001EC1  3E43               	dw	15939
   257   001EC3  E6E2               	dw	59106
   258   001EC5  3E54               	dw	15956
   259   001EC7  598E               	dw	22926
   260   001EC9  3E66               	dw	15974
   261   001ECB  BA67               	dw	47719
   262   001ECD  3E77               	dw	15991
   263   001ECF  83ED               	dw	33773
   264   001ED1  3E84               	dw	16004
   265   001ED3  204B               	dw	8267
   266   001ED5  3E8D               	dw	16013
   267   001ED7  B1A7               	dw	45479
   268   001ED9  3E95               	dw	16021
   269   001EDB  377A               	dw	14202
   270   001EDD  3E9E               	dw	16030
   271   001EDF  B0D9               	dw	45273
   272   001EE1  3EA6               	dw	16038
   273   001EE3  1D3F               	dw	7487
   274   001EE5  3EAF               	dw	16047
   275   001EE7  7C03               	dw	31747
   276   001EE9  3EB7               	dw	16055
   277   001EEB  CC5C               	dw	52316
   278   001EED  3EBF               	dw	16063
   279   001EEF  0DE5               	dw	3557
   280   001EF1  3EC8               	dw	16072
   281   001EF3  3FB3               	dw	16307
   282   001EF5  3ED0               	dw	16080
   283   001EF7  6163               	dw	24931
   284   001EF9  3ED8               	dw	16088
   285   001EFB  722A               	dw	29226
   286   001EFD  3EE0               	dw	16096
   287   001EFF  7161               	dw	29025
   288   001F01  3EE8               	dw	16104
   289   001F03  5E81               	dw	24193
   290   001F05  3EF0               	dw	16112
   291   001F07  38E3               	dw	14563
   292   001F09  3EF8               	dw	16120
   293   001F0B  0000               	dw	0
   294   001F0D  3F00               	dw	16128
   295   001F0F  D988               	dw	55688
   296   001F11  3F03               	dw	16131
   297   001F13  A8C6               	dw	43206
   298   001F15  3F07               	dw	16135
   299   001F17  6D76               	dw	28022
   300   001F19  3F0B               	dw	16139
   301   001F1B  2746               	dw	10054
   302   001F1D  3F0F               	dw	16143
   303   001F1F  D5E0               	dw	54752
   304   001F21  3F12               	dw	16146
   305   001F23  7914               	dw	30996
   306   001F25  3F16               	dw	16150
   307   001F27  108C               	dw	4236
   308   001F29  3F1A               	dw	16154
   309   001F2B  9BF6               	dw	39926
   310   001F2D  3F1D               	dw	16157
   311   001F2F  1B1E               	dw	6942
   312   001F31  3F21               	dw	16161
   313   001F33  8DB0               	dw	36272
   314   001F35  3F24               	dw	16164
   315   001F37  F37C               	dw	62332
   316   001F39  3F27               	dw	16167
   317   001F3B  4C1B               	dw	19483
   318   001F3D  3F2B               	dw	16171
   319   001F3F  976C               	dw	38764
   320   001F41  3F2E               	dw	16174
   321   001F43  D51B               	dw	54555
   322   001F45  3F31               	dw	16177
   323   001F47  04F7               	dw	1271
   324   001F49  3F35               	dw	16181
   325   001F4B  269A               	dw	9882
   326   001F4D  3F38               	dw	16184
   327   001F4F  39F3               	dw	14835
   328   001F51  3F3B               	dw	16187
   329   001F53  3EAF               	dw	16047
   330   001F55  3F3E               	dw	16190
   331   001F57  34AD               	dw	13485
   332   001F59  3F41               	dw	16193
   333   001F5B  1B76               	dw	7030
   334   001F5D  3F44               	dw	16196
   335   001F5F  F30A               	dw	62218
   336   001F61  3F46               	dw	16198
   337   001F63  BB06               	dw	47878
   338   001F65  3F49               	dw	16201
   339   001F67  7358               	dw	29528
   340   001F69  3F4C               	dw	16204
   341   001F6B  1BBD               	dw	7101
   342   001F6D  3F4F               	dw	16207
   343   001F6F  B3F2               	dw	46066
   344   001F71  3F51               	dw	16209
   345   001F73  3BD6               	dw	15318
   346   001F75  3F54               	dw	16212
   347   001F77  B325               	dw	45861
   348   001F79  3F56               	dw	16214
   349   001F7B  19AC               	dw	6572
   350   001F7D  3F59               	dw	16217
   351   001F7F  6F4C               	dw	28492
   352   001F81  3F5B               	dw	16219
   353   001F83  B3D0               	dw	46032
   354   001F85  3F5D               	dw	16221
   355   001F87  E708               	dw	59144
   356   001F89  3F5F               	dw	16223
   357   001F8B  08D1               	dw	2257
   358   001F8D  3F62               	dw	16226
   359   001F8F  18F8               	dw	6392
   360   001F91  3F64               	dw	16228
   361   001F93  175D               	dw	5981
   362   001F95  3F66               	dw	16230
   363   001F97  03BC               	dw	956
   364   001F99  3F68               	dw	16232
   365   001F9B  DE16               	dw	56854
   366   001F9D  3F69               	dw	16233
   367   001F9F  A626               	dw	42534
   368   001FA1  3F6B               	dw	16235
   369   001FA3  5BDD               	dw	23517
   370   001FA5  3F6D               	dw	16237
   371   001FA7  FF19               	dw	65305
   372   001FA9  3F6E               	dw	16238
   373   001FAB  8FA8               	dw	36776
   374   001FAD  3F70               	dw	16240
   375   001FAF  0D78               	dw	3448
   376   001FB1  3F72               	dw	16242
   377   001FB3  7868               	dw	30824
   378   001FB5  3F73               	dw	16243
   379   001FB7  D057               	dw	53335
   380   001FB9  3F74               	dw	16244
   381   001FBB  1533               	dw	5427
   382   001FBD  3F76               	dw	16246
   383   001FBF  46ED               	dw	18157
   384   001FC1  3F77               	dw	16247
   385   001FC3  6541               	dw	25921
   386   001FC5  3F78               	dw	16248
   387   001FC7  7050               	dw	28752
   388   001FC9  3F79               	dw	16249
   389   001FCB  67D7               	dw	26583
   390   001FCD  3F7A               	dw	16250
   391   001FCF  4BE8               	dw	19432
   392   001FD1  3F7B               	dw	16251
   393   001FD3  1C61               	dw	7265
   394   001FD5  3F7C               	dw	16252
   395   001FD7  D91F               	dw	55583
   396   001FD9  3F7C               	dw	16252
   397   001FDB  8234               	dw	33332
   398   001FDD  3F7D               	dw	16253
   399   001FDF  177F               	dw	6015
   400   001FE1  3F7E               	dw	16254
   401   001FE3  98FE               	dw	39166
   402   001FE5  3F7E               	dw	16254
   403   001FE7  06A3               	dw	1699
   404   001FE9  3F7F               	dw	16255
   405   001FEB  605B               	dw	24667
   406   001FED  3F7F               	dw	16255
   407   001FEF  A637               	dw	42551
   408   001FF1  3F7F               	dw	16255
   409   001FF3  D817               	dw	55319
   410   001FF5  3F7F               	dw	16255
   411   001FF7  F60A               	dw	62986
   412   001FF9  3F7F               	dw	16255
   413   001FFB  0000               	dw	0
   414   001FFD  3F80               	dw	16256
   415   001FFF                     __end_of_sine_table:
   416                           	callstack 0
   417   007C97                     _TRISA7         set	31895
   418   007C96                     _TRISA6         set	31894
   419   007C9C                     _TRISB4         set	31900
   420   007C99                     _TRISB1         set	31897
   421   007C98                     _TRISB0         set	31896
   422   007CF0                     _TMR1IF         set	31984
   423   000F8A                     _LATBbits       set	3978
   424   000FAE                     _RCREG          set	4014
   425   000FD3                     _OSCCONbits     set	4051
   426   000F9F                     _IPR1bits       set	3999
   427   000FAB                     _RCSTAbits      set	4011
   428   000F92                     _TRISAbits      set	3986
   429   000FB0                     _SPBRGH         set	4016
   430   000FAF                     _SPBRG          set	4015
   431   000FB8                     _BAUDCONbits    set	4024
   432   000FAC                     _TXSTAbits      set	4012
   433   000FF2                     _INTCONbits     set	4082
   434   000F9D                     _PIE1bits       set	3997
   435   000F9E                     _PIR1bits       set	3998
   436   000FCD                     _T1CONbits      set	4045
   437   000FCE                     _TMR1L          set	4046
   438   000FCF                     _TMR1H          set	4047
   439   000F90                     _PDC0H          set	3984
   440   000F91                     _PDC0L          set	3985
   441   000F86                     _PWMCON0bits    set	3974
   442   000F99                     _PTCON1bits     set	3993
   443   000F9A                     _PTCON0bits     set	3994
   444   000F96                     _PTPERL         set	3990
   445   000F95                     _PTPERH         set	3989
   446   001FFF  00                 	db	0	; dummy byte at the end
   447   001E92                     __smallconst    set	__pmediumconst
   448   001E92                     __mediumconst   set	__pmediumconst
   449   000002                     __activetblptr  equ	2
   450                           
   451                           ; #config settings
   452                           
   453                           	psect	cinit
   454   00177C                     __pcinit:
   455                           	callstack 0
   456   00177C                     start_initialization:
   457                           	callstack 0
   458   00177C                     __initialization:
   459                           	callstack 0
   460                           
   461                           ; Clear objects allocated to COMRAM (13 bytes)
   462   00177C  EE00  F065         	lfsr	0,__pbssCOMRAM
   463   001780  0E0D               	movlw	13
   464   001782                     clear_0:
   465   001782  6AEE               	clrf	postinc0,c
   466   001784  06E8               	decf	wreg,f,c
   467   001786  E1FD               	bnz	clear_0
   468   001788                     end_of_initialization:
   469                           	callstack 0
   470   001788                     __end_of__initialization:
   471                           	callstack 0
   472   001788  9072               	bcf	int$flags,0,c	;clear compiler interrupt flag (level 1)
   473   00178A  9272               	bcf	int$flags,1,c	;clear compiler interrupt flag (level 2)
   474   00178C  0E00               	movlw	low (__Lmediumconst shr (0+16))
   475   00178E  6EF8               	movwf	tblptru,c
   476   001790  0100               	movlb	0
   477   001792  EFB8  F002         	goto	_main	;jump to C main() function
   478                           
   479                           	psect	bssCOMRAM
   480   000065                     __pbssCOMRAM:
   481                           	callstack 0
   482   000065                     _rx_buffer:
   483                           	callstack 0
   484   000065                     	ds	5
   485   00006A                     _sine_table1:
   486                           	callstack 0
   487   00006A                     	ds	2
   488   00006C                     _TMR_VAL:
   489                           	callstack 0
   490   00006C                     	ds	2
   491   00006E                     _byte:
   492                           	callstack 0
   493   00006E                     	ds	1
   494   00006F                     _Start_HSM:
   495                           	callstack 0
   496   00006F                     	ds	1
   497   000070                     _data_received:
   498                           	callstack 0
   499   000070                     	ds	1
   500   000071                     _cnt:
   501                           	callstack 0
   502   000071                     	ds	1
   503                           
   504                           	psect	cstackCOMRAM
   505   000001                     __pcstackCOMRAM:
   506                           	callstack 0
   507   000001                     ??_ISR:
   508                           
   509                           ; 1 bytes @ 0x0
   510   000001                     	ds	3
   511   000004                     ?___lmul:
   512                           	callstack 0
   513   000004                     ?___aldiv:
   514                           	callstack 0
   515   000004                     ?___xxtofl:
   516                           	callstack 0
   517   000004                     ___lmul@multiplier:
   518                           	callstack 0
   519   000004                     ___aldiv@dividend:
   520                           	callstack 0
   521   000004                     ___xxtofl@val:
   522                           	callstack 0
   523   000004                     
   524                           ; 1 bytes @ 0x3
   525   000004                     	ds	4
   526   000008                     ___lmul@multiplicand:
   527                           	callstack 0
   528   000008                     ___aldiv@divisor:
   529                           	callstack 0
   530   000008                     ??___xxtofl:
   531                           
   532                           ; 1 bytes @ 0x7
   533   000008                     	ds	4
   534   00000C                     ___aldiv@counter:
   535                           	callstack 0
   536   00000C                     ___xxtofl@sign:
   537                           	callstack 0
   538   00000C                     ___lmul@product:
   539                           	callstack 0
   540   00000C                     
   541                           ; 1 bytes @ 0xB
   542   00000C                     	ds	1
   543   00000D                     ___aldiv@sign:
   544                           	callstack 0
   545   00000D                     ___xxtofl@exp:
   546                           	callstack 0
   547                           
   548                           ; 1 bytes @ 0xC
   549   00000D                     	ds	1
   550   00000E                     ___aldiv@quotient:
   551                           	callstack 0
   552   00000E                     ___xxtofl@arg:
   553                           	callstack 0
   554                           
   555                           ; 4 bytes @ 0xD
   556   00000E                     	ds	2
   557   000010                     ?___lldiv:
   558                           	callstack 0
   559   000010                     ___lldiv@dividend:
   560                           	callstack 0
   561                           
   562                           ; 4 bytes @ 0xF
   563   000010                     	ds	2
   564   000012                     ?___fldiv:
   565                           	callstack 0
   566   000012                     ?___flmul:
   567                           	callstack 0
   568   000012                     ___fldiv@b:
   569                           	callstack 0
   570   000012                     ___flmul@b:
   571                           	callstack 0
   572                           
   573                           ; 4 bytes @ 0x11
   574   000012                     	ds	2
   575   000014                     ___lldiv@divisor:
   576                           	callstack 0
   577                           
   578                           ; 4 bytes @ 0x13
   579   000014                     	ds	2
   580   000016                     ___fldiv@a:
   581                           	callstack 0
   582   000016                     ___flmul@a:
   583                           	callstack 0
   584                           
   585                           ; 4 bytes @ 0x15
   586   000016                     	ds	2
   587   000018                     ___lldiv@quotient:
   588                           	callstack 0
   589   000018                     
   590                           ; 1 bytes @ 0x17
   591   000018                     	ds	2
   592   00001A                     ??___fldiv:
   593   00001A                     ??___flmul:
   594                           
   595                           ; 1 bytes @ 0x19
   596   00001A                     	ds	2
   597   00001C                     ___lldiv@counter:
   598                           	callstack 0
   599                           
   600                           ; 1 bytes @ 0x1B
   601   00001C                     	ds	1
   602   00001D                     USART_Init@baudrate:
   603                           	callstack 0
   604                           
   605                           ; 4 bytes @ 0x1C
   606   00001D                     	ds	1
   607   00001E                     ___flmul@sign:
   608                           	callstack 0
   609   00001E                     ___fldiv@rem:
   610                           	callstack 0
   611                           
   612                           ; 4 bytes @ 0x1D
   613   00001E                     	ds	1
   614   00001F                     ___flmul@grs:
   615                           	callstack 0
   616                           
   617                           ; 4 bytes @ 0x1E
   618   00001F                     	ds	2
   619   000021                     ??_USART_Init:
   620                           
   621                           ; 1 bytes @ 0x20
   622   000021                     	ds	1
   623   000022                     ___fldiv@sign:
   624                           	callstack 0
   625                           
   626                           ; 1 bytes @ 0x21
   627   000022                     	ds	1
   628   000023                     ___flmul@aexp:
   629                           	callstack 0
   630   000023                     ___fldiv@new_exp:
   631                           	callstack 0
   632                           
   633                           ; 2 bytes @ 0x22
   634   000023                     	ds	1
   635   000024                     ___flmul@bexp:
   636                           	callstack 0
   637                           
   638                           ; 1 bytes @ 0x23
   639   000024                     	ds	1
   640   000025                     USART_Init@valor_SPBRG:
   641                           	callstack 0
   642   000025                     ___fldiv@grs:
   643                           	callstack 0
   644   000025                     ___flmul@prod:
   645                           	callstack 0
   646                           
   647                           ; 4 bytes @ 0x24
   648   000025                     	ds	4
   649   000029                     ___fldiv@bexp:
   650                           	callstack 0
   651   000029                     ___flmul@temp:
   652                           	callstack 0
   653                           
   654                           ; 2 bytes @ 0x28
   655   000029                     	ds	1
   656   00002A                     ___fldiv@aexp:
   657                           	callstack 0
   658                           
   659                           ; 1 bytes @ 0x29
   660   00002A                     	ds	1
   661   00002B                     ?___fladd:
   662                           	callstack 0
   663   00002B                     ___fladd@b:
   664                           	callstack 0
   665                           
   666                           ; 4 bytes @ 0x2A
   667   00002B                     	ds	4
   668   00002F                     ___fladd@a:
   669                           	callstack 0
   670                           
   671                           ; 4 bytes @ 0x2E
   672   00002F                     	ds	4
   673   000033                     ??___fladd:
   674                           
   675                           ; 1 bytes @ 0x32
   676   000033                     	ds	4
   677   000037                     ___fladd@signs:
   678                           	callstack 0
   679                           
   680                           ; 1 bytes @ 0x36
   681   000037                     	ds	1
   682   000038                     ___fladd@aexp:
   683                           	callstack 0
   684                           
   685                           ; 1 bytes @ 0x37
   686   000038                     	ds	1
   687   000039                     ___fladd@bexp:
   688                           	callstack 0
   689                           
   690                           ; 1 bytes @ 0x38
   691   000039                     	ds	1
   692   00003A                     ___fladd@grs:
   693                           	callstack 0
   694                           
   695                           ; 1 bytes @ 0x39
   696   00003A                     	ds	1
   697   00003B                     ?___fltol:
   698                           	callstack 0
   699   00003B                     ___fltol@f1:
   700                           	callstack 0
   701                           
   702                           ; 4 bytes @ 0x3A
   703   00003B                     	ds	4
   704   00003F                     ??___fltol:
   705                           
   706                           ; 1 bytes @ 0x3E
   707   00003F                     	ds	4
   708   000043                     ___fltol@sign1:
   709                           	callstack 0
   710                           
   711                           ; 1 bytes @ 0x42
   712   000043                     	ds	1
   713   000044                     ___fltol@exp1:
   714                           	callstack 0
   715                           
   716                           ; 1 bytes @ 0x43
   717   000044                     	ds	1
   718   000045                     ??_main:
   719                           
   720                           ; 1 bytes @ 0x44
   721   000045                     	ds	2
   722   000047                     main@Output_Voltage:
   723                           	callstack 0
   724                           
   725                           ; 2 bytes @ 0x46
   726   000047                     	ds	2
   727   000049                     main@Ag:
   728                           	callstack 0
   729                           
   730                           ; 4 bytes @ 0x48
   731   000049                     	ds	4
   732   00004D                     main@newfreq:
   733                           	callstack 0
   734                           
   735                           ; 2 bytes @ 0x4C
   736   00004D                     	ds	2
   737   00004F                     main@Vin:
   738                           	callstack 0
   739                           
   740                           ; 1 bytes @ 0x4E
   741   00004F                     	ds	1
   742   000050                     main@T:
   743                           	callstack 0
   744                           
   745                           ; 4 bytes @ 0x4F
   746   000050                     	ds	4
   747   000054                     main@newVtg:
   748                           	callstack 0
   749                           
   750                           ; 1 bytes @ 0x53
   751   000054                     	ds	1
   752   000055                     main@Voltage:
   753                           	callstack 0
   754                           
   755                           ; 1 bytes @ 0x54
   756   000055                     	ds	1
   757   000056                     main@edge:
   758                           	callstack 0
   759                           
   760                           ; 1 bytes @ 0x55
   761   000056                     	ds	1
   762   000057                     main@angle:
   763                           	callstack 0
   764                           
   765                           ; 1 bytes @ 0x56
   766   000057                     	ds	1
   767   000058                     main@PWM_Duty:
   768                           	callstack 0
   769                           
   770                           ; 2 bytes @ 0x57
   771   000058                     	ds	2
   772   00005A                     main@PWM_Duty_696:
   773                           	callstack 0
   774                           
   775                           ; 2 bytes @ 0x59
   776   00005A                     	ds	2
   777   00005C                     main@PWM_Duty_697:
   778                           	callstack 0
   779                           
   780                           ; 2 bytes @ 0x5B
   781   00005C                     	ds	2
   782   00005E                     main@PWM_Duty_698:
   783                           	callstack 0
   784                           
   785                           ; 2 bytes @ 0x5D
   786   00005E                     	ds	2
   787   000060                     main@j:
   788                           	callstack 0
   789                           
   790                           ; 1 bytes @ 0x5F
   791   000060                     	ds	1
   792   000061                     main@frequency:
   793                           	callstack 0
   794                           
   795                           ; 2 bytes @ 0x60
   796   000061                     	ds	2
   797   000063                     main@count:
   798                           	callstack 0
   799                           
   800                           ; 1 bytes @ 0x62
   801   000063                     	ds	1
   802   000064                     main@i:
   803                           	callstack 0
   804                           
   805                           ; 1 bytes @ 0x63
   806   000064                     	ds	1
   807                           
   808 ;;
   809 ;;Main: autosize = 0, tempsize = 2, incstack = 0, save=0
   810 ;;
   811 ;; *************** function _main *****************
   812 ;; Defined at:
   813 ;;		line 195 in file "FREQ_DISP_3_NGT.c"
   814 ;; Parameters:    Size  Location     Type
   815 ;;		None
   816 ;; Auto vars:     Size  Location     Type
   817 ;;  PWM_Duty        2   93[COMRAM] unsigned short 
   818 ;;  PWM_Duty        2   91[COMRAM] unsigned short 
   819 ;;  PWM_Duty        2   89[COMRAM] unsigned short 
   820 ;;  PWM_Duty        2   87[COMRAM] unsigned short 
   821 ;;  angle           1   86[COMRAM] unsigned char 
   822 ;;  T               4   79[COMRAM] float 
   823 ;;  Ag              4   72[COMRAM] float 
   824 ;;  frequency       2   96[COMRAM] unsigned short 
   825 ;;  newfreq         2   76[COMRAM] unsigned short 
   826 ;;  Output_Volta    2   70[COMRAM] unsigned short 
   827 ;;  i               1   99[COMRAM] unsigned char 
   828 ;;  count           1   98[COMRAM] unsigned char 
   829 ;;  j               1   95[COMRAM] unsigned char 
   830 ;;  edge            1   85[COMRAM] unsigned char 
   831 ;;  Voltage         1   84[COMRAM] unsigned char 
   832 ;;  newVtg          1   83[COMRAM] unsigned char 
   833 ;;  Vin             1   78[COMRAM] unsigned char 
   834 ;; Return value:  Size  Location     Type
   835 ;;                  1    wreg      void 
   836 ;; Registers used:
   837 ;;		wreg, fsr2l, fsr2h, status,2, status,0, tblptrl, tblptrh, tblptru, prodl, prodh, cstack
   838 ;; Tracked objects:
   839 ;;		On entry : 0/0
   840 ;;		On exit  : 0/0
   841 ;;		Unchanged: 0/0
   842 ;; Data sizes:     COMRAM   BANK0
   843 ;;      Params:         0       0
   844 ;;      Locals:        30       0
   845 ;;      Temps:          2       0
   846 ;;      Totals:        32       0
   847 ;;Total ram usage:       32 bytes
   848 ;; Hardware stack levels required when called: 3
   849 ;; This function calls:
   850 ;;		_INTOSC_Init
   851 ;;		_PWM_Init
   852 ;;		_Timer1_Init
   853 ;;		_USART_Init
   854 ;;		___aldiv
   855 ;;		___fladd
   856 ;;		___fldiv
   857 ;;		___flmul
   858 ;;		___fltol
   859 ;;		___lldiv
   860 ;;		___lmul
   861 ;;		___xxtofl
   862 ;; This function is called by:
   863 ;;		Startup code after reset
   864 ;; This function uses a non-reentrant model
   865 ;;
   866                           
   867                           	psect	text0
   868   000570                     __ptext0:
   869                           	callstack 0
   870   000570                     _main:
   871                           	callstack 28
   872   000570                     
   873                           ;FREQ_DISP_3_NGT.c: 196:     TRISB0 = 0;
   874   000570  9093               	bcf	3987,0,c	;volatile
   875                           
   876                           ;FREQ_DISP_3_NGT.c: 197:     LATBbits.LATB0 = 0;
   877   000572  908A               	bcf	138,0,c	;volatile
   878                           
   879                           ;FREQ_DISP_3_NGT.c: 198:     TRISB1 = 0;
   880   000574  9293               	bcf	3987,1,c	;volatile
   881                           
   882                           ;FREQ_DISP_3_NGT.c: 199:     LATBbits.LATB1 = 0;
   883   000576  928A               	bcf	138,1,c	;volatile
   884                           
   885                           ;FREQ_DISP_3_NGT.c: 200:     TRISB4 = 0;
   886   000578  9893               	bcf	3987,4,c	;volatile
   887                           
   888                           ;FREQ_DISP_3_NGT.c: 201:     LATBbits.LATB4 = 0;
   889   00057A  988A               	bcf	138,4,c	;volatile
   890                           
   891                           ;FREQ_DISP_3_NGT.c: 202:     TRISA6 = 1;
   892   00057C  8C92               	bsf	3986,6,c	;volatile
   893                           
   894                           ;FREQ_DISP_3_NGT.c: 203:     TRISA7 = 1;
   895   00057E  8E92               	bsf	3986,7,c	;volatile
   896                           
   897                           ;FREQ_DISP_3_NGT.c: 205:     uint8_t Voltage = 0, count = 0, i, j, Vin = 220, newVtg, ed
      +                          ge;
   898   000580  6A55               	clrf	main@Voltage^0,c
   899   000582  6A63               	clrf	main@count^0,c
   900   000584  0EDC               	movlw	220
   901   000586  6E4F               	movwf	main@Vin^0,c
   902                           
   903                           ;FREQ_DISP_3_NGT.c: 206:     uint16_t frequency = 0, newfreq = 0, Output_Voltage;
   904   000588  0E00               	movlw	0
   905   00058A  6E62               	movwf	(main@frequency+1)^0,c
   906   00058C  0E00               	movlw	0
   907   00058E  6E61               	movwf	main@frequency^0,c
   908   000590  0E00               	movlw	0
   909   000592  6E4E               	movwf	(main@newfreq+1)^0,c
   910   000594  0E00               	movlw	0
   911   000596  6E4D               	movwf	main@newfreq^0,c
   912   000598  0E00               	movlw	0
   913   00059A  6E49               	movwf	main@Ag^0,c
   914   00059C  0E00               	movlw	0
   915   00059E  6E4A               	movwf	(main@Ag+1)^0,c
   916   0005A0  0E00               	movlw	0
   917   0005A2  6E4B               	movwf	(main@Ag+2)^0,c
   918   0005A4  0E00               	movlw	0
   919   0005A6  6E4C               	movwf	(main@Ag+3)^0,c
   920   0005A8                     
   921                           ;FREQ_DISP_3_NGT.c: 208:     INTOSC_Init();
   922   0005A8  ECCB  F00B         	call	_INTOSC_Init	;wreg free
   923                           
   924                           ;FREQ_DISP_3_NGT.c: 209:     PWM_Init();
   925   0005AC  EC98  F00B         	call	_PWM_Init	;wreg free
   926   0005B0                     
   927                           ;FREQ_DISP_3_NGT.c: 210:     USART_Init(1200);
   928   0005B0  0EB0               	movlw	176
   929   0005B2  6E1D               	movwf	USART_Init@baudrate^0,c
   930   0005B4  0E04               	movlw	4
   931   0005B6  6E1E               	movwf	(USART_Init@baudrate+1)^0,c
   932   0005B8  0E00               	movlw	0
   933   0005BA  6E1F               	movwf	(USART_Init@baudrate+2)^0,c
   934   0005BC  0E00               	movlw	0
   935   0005BE  6E20               	movwf	(USART_Init@baudrate+3)^0,c
   936   0005C0  EC19  F00B         	call	_USART_Init	;wreg free
   937   0005C4                     
   938                           ;FREQ_DISP_3_NGT.c: 211:     Timer1_Init();
   939   0005C4  ECAD  F00B         	call	_Timer1_Init	;wreg free
   940   0005C8                     l2304:
   941                           
   942                           ;FREQ_DISP_3_NGT.c: 214:         if (data_received) {
   943   0005C8  5070               	movf	_data_received^0,w,c	;volatile
   944   0005CA  B4D8               	btfsc	status,2,c
   945   0005CC  EFEA  F002         	goto	u2431
   946   0005D0  EFEC  F002         	goto	u2430
   947   0005D4                     u2431:
   948   0005D4  EFF5  F002         	goto	l2312
   949   0005D8                     u2430:
   950   0005D8                     
   951                           ;FREQ_DISP_3_NGT.c: 215:             Voltage = rx_buffer[1];
   952   0005D8  C066  F055         	movff	_rx_buffer+1,main@Voltage	;volatile
   953   0005DC                     
   954                           ;FREQ_DISP_3_NGT.c: 216:             frequency = ((uint16_t) rx_buffer[2] << 8) | rx_buf
      +                          fer[3];
   955   0005DC  5067               	movf	(_rx_buffer+2)^0,w,c	;volatile
   956   0005DE  6E45               	movwf	??_main^0,c
   957   0005E0  5068               	movf	(_rx_buffer+3)^0,w,c	;volatile
   958   0005E2  6E61               	movwf	main@frequency^0,c
   959   0005E4  C045  F062         	movff	??_main,main@frequency+1
   960   0005E8                     
   961                           ;FREQ_DISP_3_NGT.c: 218:             data_received = 0;
   962   0005E8  6A70               	clrf	_data_received^0,c	;volatile
   963   0005EA                     l2312:
   964                           
   965                           ;FREQ_DISP_3_NGT.c: 220:         if ((frequency != newfreq) || (Voltage != newVtg)) {
   966   0005EA  504D               	movf	main@newfreq^0,w,c
   967   0005EC  1861               	xorwf	main@frequency^0,w,c
   968   0005EE  E107               	bnz	u2441
   969   0005F0  504E               	movf	(main@newfreq+1)^0,w,c
   970   0005F2  1862               	xorwf	(main@frequency+1)^0,w,c
   971   0005F4  A4D8               	btfss	status,2,c
   972   0005F6  EFFF  F002         	goto	u2441
   973   0005FA  EF01  F003         	goto	u2440
   974   0005FE                     u2441:
   975   0005FE  EF0A  F003         	goto	l108
   976   000602                     u2440:
   977   000602  5054               	movf	main@newVtg^0,w,c
   978   000604  1855               	xorwf	main@Voltage^0,w,c
   979   000606  B4D8               	btfsc	status,2,c
   980   000608  EF08  F003         	goto	u2451
   981   00060C  EF0A  F003         	goto	u2450
   982   000610                     u2451:
   983   000610  EF27  F004         	goto	l2332
   984   000614                     u2450:
   985   000614                     l108:
   986                           
   987                           ;FREQ_DISP_3_NGT.c: 221:             T1CONbits.TMR1ON = 1;
   988   000614  80CD               	bsf	205,0,c	;volatile
   989                           
   990                           ;FREQ_DISP_3_NGT.c: 222:             newfreq = frequency;
   991   000616  C061  F04D         	movff	main@frequency,main@newfreq
   992   00061A  C062  F04E         	movff	main@frequency+1,main@newfreq+1
   993                           
   994                           ;FREQ_DISP_3_NGT.c: 223:             newVtg = Voltage;
   995   00061E  C055  F054         	movff	main@Voltage,main@newVtg
   996   000622                     
   997                           ;FREQ_DISP_3_NGT.c: 225:             Output_Voltage = (uint16_t)(((uint32_t)newVtg * 100
      +                          ) / Vin);
   998   000622  5054               	movf	main@newVtg^0,w,c
   999   000624  6E04               	movwf	___lmul@multiplier^0,c
  1000   000626  6A05               	clrf	(___lmul@multiplier+1)^0,c
  1001   000628  6A06               	clrf	(___lmul@multiplier+2)^0,c
  1002   00062A  6A07               	clrf	(___lmul@multiplier+3)^0,c
  1003   00062C  0E64               	movlw	100
  1004   00062E  6E08               	movwf	___lmul@multiplicand^0,c
  1005   000630  0E00               	movlw	0
  1006   000632  6E09               	movwf	(___lmul@multiplicand+1)^0,c
  1007   000634  0E00               	movlw	0
  1008   000636  6E0A               	movwf	(___lmul@multiplicand+2)^0,c
  1009   000638  0E00               	movlw	0
  1010   00063A  6E0B               	movwf	(___lmul@multiplicand+3)^0,c
  1011   00063C  EC63  F00B         	call	___lmul	;wreg free
  1012   000640  C004  F010         	movff	?___lmul,___lldiv@dividend
  1013   000644  C005  F011         	movff	?___lmul+1,___lldiv@dividend+1
  1014   000648  C006  F012         	movff	?___lmul+2,___lldiv@dividend+2
  1015   00064C  C007  F013         	movff	?___lmul+3,___lldiv@dividend+3
  1016   000650  504F               	movf	main@Vin^0,w,c
  1017   000652  6E14               	movwf	___lldiv@divisor^0,c
  1018   000654  6A15               	clrf	(___lldiv@divisor+1)^0,c
  1019   000656  6A16               	clrf	(___lldiv@divisor+2)^0,c
  1020   000658  6A17               	clrf	(___lldiv@divisor+3)^0,c
  1021   00065A  ECC7  F00A         	call	___lldiv	;wreg free
  1022   00065E  C010  F047         	movff	?___lldiv,main@Output_Voltage
  1023   000662  C011  F048         	movff	?___lldiv+1,main@Output_Voltage+1
  1024                           
  1025                           ;FREQ_DISP_3_NGT.c: 228:             TMR_VAL = 65535 - (10000000 / (16 * (uint16_t) freq
      +                          uency));
  1026   000666  0E80               	movlw	128
  1027   000668  6E04               	movwf	___aldiv@dividend^0,c
  1028   00066A  0E96               	movlw	150
  1029   00066C  6E05               	movwf	(___aldiv@dividend+1)^0,c
  1030   00066E  0E98               	movlw	152
  1031   000670  6E06               	movwf	(___aldiv@dividend+2)^0,c
  1032   000672  0E00               	movlw	0
  1033   000674  6E07               	movwf	(___aldiv@dividend+3)^0,c
  1034   000676  C061  F045         	movff	main@frequency,??_main
  1035   00067A  C062  F046         	movff	main@frequency+1,??_main+1
  1036   00067E  3A45               	swapf	??_main^0,f,c
  1037   000680  3A46               	swapf	(??_main+1)^0,f,c
  1038   000682  0EF0               	movlw	240
  1039   000684  1646               	andwf	(??_main+1)^0,f,c
  1040   000686  5045               	movf	??_main^0,w,c
  1041   000688  0B0F               	andlw	15
  1042   00068A  1246               	iorwf	(??_main+1)^0,f,c
  1043   00068C  0EF0               	movlw	240
  1044   00068E  1645               	andwf	??_main^0,f,c
  1045   000690  C045  F008         	movff	??_main,___aldiv@divisor
  1046   000694  C046  F009         	movff	??_main+1,___aldiv@divisor+1
  1047   000698  6A0A               	clrf	(___aldiv@divisor+2)^0,c
  1048   00069A  6A0B               	clrf	(___aldiv@divisor+3)^0,c
  1049   00069C  ECBF  F009         	call	___aldiv	;wreg free
  1050   0006A0  1C04               	comf	?___aldiv^0,w,c
  1051   0006A2  6E6C               	movwf	_TMR_VAL^0,c
  1052   0006A4  1C05               	comf	(?___aldiv+1)^0,w,c
  1053   0006A6  6E6D               	movwf	(_TMR_VAL+1)^0,c
  1054                           
  1055                           ;FREQ_DISP_3_NGT.c: 229:             T = 2500.0f / (float) frequency;
  1056   0006A8  0E00               	movlw	0
  1057   0006AA  6E12               	movwf	___fldiv@b^0,c
  1058   0006AC  0E40               	movlw	64
  1059   0006AE  6E13               	movwf	(___fldiv@b+1)^0,c
  1060   0006B0  0E1C               	movlw	28
  1061   0006B2  6E14               	movwf	(___fldiv@b+2)^0,c
  1062   0006B4  0E45               	movlw	69
  1063   0006B6  6E15               	movwf	(___fldiv@b+3)^0,c
  1064   0006B8  C061  F004         	movff	main@frequency,___xxtofl@val
  1065   0006BC  C062  F005         	movff	main@frequency+1,___xxtofl@val+1
  1066   0006C0  6A06               	clrf	(___xxtofl@val+2)^0,c
  1067   0006C2  6A07               	clrf	(___xxtofl@val+3)^0,c
  1068   0006C4  0E00               	movlw	0
  1069   0006C6  ECE5  F008         	call	___xxtofl
  1070   0006CA  C004  F016         	movff	?___xxtofl,___fldiv@a
  1071   0006CE  C005  F017         	movff	?___xxtofl+1,___fldiv@a+1
  1072   0006D2  C006  F018         	movff	?___xxtofl+2,___fldiv@a+2
  1073   0006D6  C007  F019         	movff	?___xxtofl+3,___fldiv@a+3
  1074   0006DA  EC1D  F007         	call	___fldiv	;wreg free
  1075   0006DE  C012  F050         	movff	?___fldiv,main@T
  1076   0006E2  C013  F051         	movff	?___fldiv+1,main@T+1
  1077   0006E6  C014  F052         	movff	?___fldiv+2,main@T+2
  1078   0006EA  C015  F053         	movff	?___fldiv+3,main@T+3
  1079                           
  1080                           ;FREQ_DISP_3_NGT.c: 230:             Ag = 90.0f / T;
  1081   0006EE  0E00               	movlw	0
  1082   0006F0  6E12               	movwf	___fldiv@b^0,c
  1083   0006F2  0E00               	movlw	0
  1084   0006F4  6E13               	movwf	(___fldiv@b+1)^0,c
  1085   0006F6  0EB4               	movlw	180
  1086   0006F8  6E14               	movwf	(___fldiv@b+2)^0,c
  1087   0006FA  0E42               	movlw	66
  1088   0006FC  6E15               	movwf	(___fldiv@b+3)^0,c
  1089   0006FE  C050  F016         	movff	main@T,___fldiv@a
  1090   000702  C051  F017         	movff	main@T+1,___fldiv@a+1
  1091   000706  C052  F018         	movff	main@T+2,___fldiv@a+2
  1092   00070A  C053  F019         	movff	main@T+3,___fldiv@a+3
  1093   00070E  EC1D  F007         	call	___fldiv	;wreg free
  1094   000712  C012  F049         	movff	?___fldiv,main@Ag
  1095   000716  C013  F04A         	movff	?___fldiv+1,main@Ag+1
  1096   00071A  C014  F04B         	movff	?___fldiv+2,main@Ag+2
  1097   00071E  C015  F04C         	movff	?___fldiv+3,main@Ag+3
  1098                           
  1099                           ;FREQ_DISP_3_NGT.c: 231:             count = (uint8_t) T;
  1100   000722  C050  F03B         	movff	main@T,___fltol@f1
  1101   000726  C051  F03C         	movff	main@T+1,___fltol@f1+1
  1102   00072A  C052  F03D         	movff	main@T+2,___fltol@f1+2
  1103   00072E  C053  F03E         	movff	main@T+3,___fltol@f1+3
  1104   000732  EC44  F00A         	call	___fltol	;wreg free
  1105   000736  503B               	movf	?___fltol^0,w,c
  1106   000738  6E63               	movwf	main@count^0,c
  1107   00073A                     
  1108                           ;FREQ_DISP_3_NGT.c: 232:             for ( j = 0; j < count; j++) {
  1109   00073A  6A60               	clrf	main@j^0,c
  1110   00073C  EF1E  F004         	goto	l2330
  1111   000740                     l2320:
  1112                           
  1113                           ;FREQ_DISP_3_NGT.c: 233:                 uint8_t angle = (uint8_t) (j * Ag + 0.5);
  1114   000740  0E00               	movlw	0
  1115   000742  6E2F               	movwf	___fladd@a^0,c
  1116   000744  0E00               	movlw	0
  1117   000746  6E30               	movwf	(___fladd@a+1)^0,c
  1118   000748  0E00               	movlw	0
  1119   00074A  6E31               	movwf	(___fladd@a+2)^0,c
  1120   00074C  0E3F               	movlw	63
  1121   00074E  6E32               	movwf	(___fladd@a+3)^0,c
  1122   000750  C049  F016         	movff	main@Ag,___flmul@a
  1123   000754  C04A  F017         	movff	main@Ag+1,___flmul@a+1
  1124   000758  C04B  F018         	movff	main@Ag+2,___flmul@a+2
  1125   00075C  C04C  F019         	movff	main@Ag+3,___flmul@a+3
  1126   000760  5060               	movf	main@j^0,w,c
  1127   000762  6E04               	movwf	___xxtofl@val^0,c
  1128   000764  6A05               	clrf	(___xxtofl@val+1)^0,c
  1129   000766  6A06               	clrf	(___xxtofl@val+2)^0,c
  1130   000768  6A07               	clrf	(___xxtofl@val+3)^0,c
  1131   00076A  0E01               	movlw	1
  1132   00076C  ECE5  F008         	call	___xxtofl
  1133   000770  C004  F012         	movff	?___xxtofl,___flmul@b
  1134   000774  C005  F013         	movff	?___xxtofl+1,___flmul@b+1
  1135   000778  C006  F014         	movff	?___xxtofl+2,___flmul@b+2
  1136   00077C  C007  F015         	movff	?___xxtofl+3,___flmul@b+3
  1137   000780  EC0A  F005         	call	___flmul	;wreg free
  1138   000784  C012  F02B         	movff	?___flmul,___fladd@b
  1139   000788  C013  F02C         	movff	?___flmul+1,___fladd@b+1
  1140   00078C  C014  F02D         	movff	?___flmul+2,___fladd@b+2
  1141   000790  C015  F02E         	movff	?___flmul+3,___fladd@b+3
  1142   000794  EC5D  F000         	call	___fladd	;wreg free
  1143   000798  C02B  F03B         	movff	?___fladd,___fltol@f1
  1144   00079C  C02C  F03C         	movff	?___fladd+1,___fltol@f1+1
  1145   0007A0  C02D  F03D         	movff	?___fladd+2,___fltol@f1+2
  1146   0007A4  C02E  F03E         	movff	?___fladd+3,___fltol@f1+3
  1147   0007A8  EC44  F00A         	call	___fltol	;wreg free
  1148   0007AC  503B               	movf	?___fltol^0,w,c
  1149   0007AE  6E57               	movwf	main@angle^0,c
  1150   0007B0                     
  1151                           ;FREQ_DISP_3_NGT.c: 234:                 if (angle > 90) angle = 90;
  1152   0007B0  0E5A               	movlw	90
  1153   0007B2  6457               	cpfsgt	main@angle^0,c
  1154   0007B4  EFDE  F003         	goto	u2461
  1155   0007B8  EFE0  F003         	goto	u2460
  1156   0007BC                     u2461:
  1157   0007BC  EFE2  F003         	goto	l2326
  1158   0007C0                     u2460:
  1159   0007C0  0E5A               	movlw	90
  1160   0007C2  6E57               	movwf	main@angle^0,c
  1161   0007C4                     l2326:
  1162                           
  1163                           ;FREQ_DISP_3_NGT.c: 235:                 sine_table1[j] = (uint16_t) Output_Voltage * si
      +                          ne_table[angle];
  1164   0007C4  5057               	movf	main@angle^0,w,c
  1165   0007C6  0D04               	mullw	4
  1166   0007C8  0E93               	movlw	low _sine_table
  1167   0007CA  24F3               	addwf	243,w,c
  1168   0007CC  6EF6               	movwf	tblptrl,c
  1169   0007CE  0E1E               	movlw	high _sine_table
  1170   0007D0  20F4               	addwfc	244,w,c
  1171   0007D2  6EF7               	movwf	tblptrh,c
  1172   0007D4                     	if	0	;There are less than 3 active tblptr bytes
  1173   0007D4                     	endif
  1174   0007D4  0009               	tblrd		*+
  1175   0007D6  CFF5 F016          	movff	tablat,___flmul@a
  1176   0007DA  0009               	tblrd		*+
  1177   0007DC  CFF5 F017          	movff	tablat,___flmul@a+1
  1178   0007E0  0009               	tblrd		*+
  1179   0007E2  CFF5 F018          	movff	tablat,___flmul@a+2
  1180   0007E6  000A               	tblrd		*-
  1181   0007E8  CFF5 F019          	movff	tablat,___flmul@a+3
  1182   0007EC  C047  F004         	movff	main@Output_Voltage,___xxtofl@val
  1183   0007F0  C048  F005         	movff	main@Output_Voltage+1,___xxtofl@val+1
  1184   0007F4  6A06               	clrf	(___xxtofl@val+2)^0,c
  1185   0007F6  6A07               	clrf	(___xxtofl@val+3)^0,c
  1186   0007F8  0E00               	movlw	0
  1187   0007FA  ECE5  F008         	call	___xxtofl
  1188   0007FE  C004  F012         	movff	?___xxtofl,___flmul@b
  1189   000802  C005  F013         	movff	?___xxtofl+1,___flmul@b+1
  1190   000806  C006  F014         	movff	?___xxtofl+2,___flmul@b+2
  1191   00080A  C007  F015         	movff	?___xxtofl+3,___flmul@b+3
  1192   00080E  EC0A  F005         	call	___flmul	;wreg free
  1193   000812  C012  F03B         	movff	?___flmul,___fltol@f1
  1194   000816  C013  F03C         	movff	?___flmul+1,___fltol@f1+1
  1195   00081A  C014  F03D         	movff	?___flmul+2,___fltol@f1+2
  1196   00081E  C015  F03E         	movff	?___flmul+3,___fltol@f1+3
  1197   000822  EC44  F00A         	call	___fltol	;wreg free
  1198   000826  5060               	movf	main@j^0,w,c
  1199   000828  0D02               	mullw	2
  1200   00082A  50F3               	movf	243,w,c
  1201   00082C  0F6A               	addlw	low _sine_table1
  1202   00082E  6ED9               	movwf	fsr2l,c
  1203   000830  6ADA               	clrf	fsr2h,c
  1204   000832  C03B  FFDE         	movff	?___fltol,postinc2
  1205   000836  C03C  FFDD         	movff	?___fltol+1,postdec2
  1206   00083A                     
  1207                           ;FREQ_DISP_3_NGT.c: 236:             }
  1208   00083A  2A60               	incf	main@j^0,f,c
  1209   00083C                     l2330:
  1210   00083C  5063               	movf	main@count^0,w,c
  1211   00083E  5C60               	subwf	main@j^0,w,c
  1212   000840  A0D8               	btfss	status,0,c
  1213   000842  EF25  F004         	goto	u2471
  1214   000846  EF27  F004         	goto	u2470
  1215   00084A                     u2471:
  1216   00084A  EFA0  F003         	goto	l2320
  1217   00084E                     u2470:
  1218   00084E                     l2332:
  1219                           
  1220                           ;FREQ_DISP_3_NGT.c: 238:         if (Start_HSM == 1 && edge == 0) {
  1221   00084E  046F               	decf	_Start_HSM^0,w,c	;volatile
  1222   000850  A4D8               	btfss	status,2,c
  1223   000852  EF2D  F004         	goto	u2481
  1224   000856  EF2F  F004         	goto	u2480
  1225   00085A                     u2481:
  1226   00085A  EF98  F004         	goto	l2374
  1227   00085E                     u2480:
  1228   00085E  5056               	movf	main@edge^0,w,c
  1229   000860  A4D8               	btfss	status,2,c
  1230   000862  EF35  F004         	goto	u2491
  1231   000866  EF37  F004         	goto	u2490
  1232   00086A                     u2491:
  1233   00086A  EF98  F004         	goto	l2374
  1234   00086E                     u2490:
  1235   00086E                     
  1236                           ;FREQ_DISP_3_NGT.c: 240:             for (i = 0; i < count; i++) {
  1237   00086E  6A64               	clrf	main@i^0,c
  1238   000870  EF5B  F004         	goto	l2350
  1239   000874                     l2338:
  1240                           
  1241                           ;FREQ_DISP_3_NGT.c: 241:                 uint16_t PWM_Duty = sine_table1[i];
  1242   000874  5064               	movf	main@i^0,w,c
  1243   000876  0D02               	mullw	2
  1244   000878  50F3               	movf	243,w,c
  1245   00087A  0F6A               	addlw	low _sine_table1
  1246   00087C  6ED9               	movwf	fsr2l,c
  1247   00087E  6ADA               	clrf	fsr2h,c
  1248   000880  CFDE F058          	movff	postinc2,main@PWM_Duty
  1249   000884  CFDD F059          	movff	postdec2,main@PWM_Duty+1
  1250   000888                     
  1251                           ;FREQ_DISP_3_NGT.c: 242:                 PWM_Duty = (0xFFFF) & (PWM_Duty << 2);
  1252   000888  C058  F045         	movff	main@PWM_Duty,??_main
  1253   00088C  C059  F046         	movff	main@PWM_Duty+1,??_main+1
  1254   000890  90D8               	bcf	status,0,c
  1255   000892  3645               	rlcf	??_main^0,f,c
  1256   000894  3646               	rlcf	(??_main+1)^0,f,c
  1257   000896  90D8               	bcf	status,0,c
  1258   000898  3645               	rlcf	??_main^0,f,c
  1259   00089A  3646               	rlcf	(??_main+1)^0,f,c
  1260   00089C  C045  F058         	movff	??_main,main@PWM_Duty
  1261   0008A0  C046  F059         	movff	??_main+1,main@PWM_Duty+1
  1262   0008A4                     
  1263                           ;FREQ_DISP_3_NGT.c: 243:                 PDC0L = PWM_Duty & 0xFF;
  1264   0008A4  C058  FF91         	movff	main@PWM_Duty,3985	;volatile
  1265   0008A8                     
  1266                           ;FREQ_DISP_3_NGT.c: 244:                 PDC0H = (PWM_Duty >> 8);
  1267   0008A8  5059               	movf	(main@PWM_Duty+1)^0,w,c
  1268   0008AA  6E90               	movwf	144,c	;volatile
  1269   0008AC                     
  1270                           ;FREQ_DISP_3_NGT.c: 245:                 _delay((unsigned long)((85)*(10000000/4000000.0
      +                          )));
  1271   0008AC  0E46               	movlw	70
  1272   0008AE                     u2567:
  1273   0008AE  2EE8               	decfsz	wreg,f,c
  1274   0008B0  D7FE               	bra	u2567
  1275   0008B2  D000               	nop2	
  1276   0008B4                     
  1277                           ;FREQ_DISP_3_NGT.c: 246:             }
  1278   0008B4  2A64               	incf	main@i^0,f,c
  1279   0008B6                     l2350:
  1280   0008B6  5063               	movf	main@count^0,w,c
  1281   0008B8  5C64               	subwf	main@i^0,w,c
  1282   0008BA  A0D8               	btfss	status,0,c
  1283   0008BC  EF62  F004         	goto	u2501
  1284   0008C0  EF64  F004         	goto	u2500
  1285   0008C4                     u2501:
  1286   0008C4  EF3A  F004         	goto	l2338
  1287   0008C8                     u2500:
  1288   0008C8                     
  1289                           ;FREQ_DISP_3_NGT.c: 247:             for (i = (count - 1); i > 0; i--) {
  1290   0008C8  0463               	decf	main@count^0,w,c
  1291   0008CA  6E64               	movwf	main@i^0,c
  1292   0008CC                     l2354:
  1293   0008CC  5064               	movf	main@i^0,w,c
  1294   0008CE  A4D8               	btfss	status,2,c
  1295   0008D0  EF6C  F004         	goto	u2511
  1296   0008D4  EF6E  F004         	goto	u2510
  1297   0008D8                     u2511:
  1298   0008D8  EF70  F004         	goto	l2358
  1299   0008DC                     u2510:
  1300   0008DC  EF93  F004         	goto	l118
  1301   0008E0                     l2358:
  1302                           
  1303                           ;FREQ_DISP_3_NGT.c: 248:                 uint16_t PWM_Duty = sine_table1[i];
  1304   0008E0  5064               	movf	main@i^0,w,c
  1305   0008E2  0D02               	mullw	2
  1306   0008E4  50F3               	movf	243,w,c
  1307   0008E6  0F6A               	addlw	low _sine_table1
  1308   0008E8  6ED9               	movwf	fsr2l,c
  1309   0008EA  6ADA               	clrf	fsr2h,c
  1310   0008EC  CFDE F05A          	movff	postinc2,main@PWM_Duty_696
  1311   0008F0  CFDD F05B          	movff	postdec2,main@PWM_Duty_696+1
  1312   0008F4                     
  1313                           ;FREQ_DISP_3_NGT.c: 249:                 PWM_Duty = (0xFFFF) & (PWM_Duty << 2);
  1314   0008F4  C05A  F045         	movff	main@PWM_Duty_696,??_main
  1315   0008F8  C05B  F046         	movff	main@PWM_Duty_696+1,??_main+1
  1316   0008FC  90D8               	bcf	status,0,c
  1317   0008FE  3645               	rlcf	??_main^0,f,c
  1318   000900  3646               	rlcf	(??_main+1)^0,f,c
  1319   000902  90D8               	bcf	status,0,c
  1320   000904  3645               	rlcf	??_main^0,f,c
  1321   000906  3646               	rlcf	(??_main+1)^0,f,c
  1322   000908  C045  F05A         	movff	??_main,main@PWM_Duty_696
  1323   00090C  C046  F05B         	movff	??_main+1,main@PWM_Duty_696+1
  1324   000910                     
  1325                           ;FREQ_DISP_3_NGT.c: 250:                 PDC0L = PWM_Duty & 0xFF;
  1326   000910  C05A  FF91         	movff	main@PWM_Duty_696,3985	;volatile
  1327   000914                     
  1328                           ;FREQ_DISP_3_NGT.c: 251:                 PDC0H = (PWM_Duty >> 8);
  1329   000914  505B               	movf	(main@PWM_Duty_696+1)^0,w,c
  1330   000916  6E90               	movwf	144,c	;volatile
  1331   000918                     
  1332                           ;FREQ_DISP_3_NGT.c: 252:                 _delay((unsigned long)((85)*(10000000/4000000.0
      +                          )));
  1333   000918  0E46               	movlw	70
  1334   00091A                     u2577:
  1335   00091A  2EE8               	decfsz	wreg,f,c
  1336   00091C  D7FE               	bra	u2577
  1337   00091E  D000               	nop2	
  1338   000920                     
  1339                           ;FREQ_DISP_3_NGT.c: 253:             }
  1340   000920  0664               	decf	main@i^0,f,c
  1341   000922  EF66  F004         	goto	l2354
  1342   000926                     l118:
  1343                           
  1344                           ;FREQ_DISP_3_NGT.c: 254:             Start_HSM = 0;
  1345   000926  6A6F               	clrf	_Start_HSM^0,c	;volatile
  1346   000928                     
  1347                           ;FREQ_DISP_3_NGT.c: 255:             edge = 1;
  1348   000928  0E01               	movlw	1
  1349   00092A  6E56               	movwf	main@edge^0,c
  1350                           
  1351                           ;FREQ_DISP_3_NGT.c: 256:         }
  1352   00092C  EFE4  F002         	goto	l2304
  1353   000930                     l2374:
  1354   000930  046F               	decf	_Start_HSM^0,w,c	;volatile
  1355   000932  A4D8               	btfss	status,2,c
  1356   000934  EF9E  F004         	goto	u2521
  1357   000938  EFA0  F004         	goto	u2520
  1358   00093C                     u2521:
  1359   00093C  EFE4  F002         	goto	l2304
  1360   000940                     u2520:
  1361   000940  0456               	decf	main@edge^0,w,c
  1362   000942  A4D8               	btfss	status,2,c
  1363   000944  EFA6  F004         	goto	u2531
  1364   000948  EFA8  F004         	goto	u2530
  1365   00094C                     u2531:
  1366   00094C  EFE4  F002         	goto	l2304
  1367   000950                     u2530:
  1368   000950                     
  1369                           ;FREQ_DISP_3_NGT.c: 259:                                                   for (i = (cou
      +                          nt - 1); i > 0; i--) {
  1370   000950  0463               	decf	main@count^0,w,c
  1371   000952  6E64               	movwf	main@i^0,c
  1372   000954                     l2380:
  1373   000954  5064               	movf	main@i^0,w,c
  1374   000956  A4D8               	btfss	status,2,c
  1375   000958  EFB0  F004         	goto	u2541
  1376   00095C  EFB2  F004         	goto	u2540
  1377   000960                     u2541:
  1378   000960  EFB4  F004         	goto	l2384
  1379   000964                     u2540:
  1380   000964  EFD7  F004         	goto	l122
  1381   000968                     l2384:
  1382                           
  1383                           ;FREQ_DISP_3_NGT.c: 260:                 uint16_t PWM_Duty = sine_table1[i];
  1384   000968  5064               	movf	main@i^0,w,c
  1385   00096A  0D02               	mullw	2
  1386   00096C  50F3               	movf	243,w,c
  1387   00096E  0F6A               	addlw	low _sine_table1
  1388   000970  6ED9               	movwf	fsr2l,c
  1389   000972  6ADA               	clrf	fsr2h,c
  1390   000974  CFDE F05C          	movff	postinc2,main@PWM_Duty_697
  1391   000978  CFDD F05D          	movff	postdec2,main@PWM_Duty_697+1
  1392   00097C                     
  1393                           ;FREQ_DISP_3_NGT.c: 261:                 PWM_Duty = (0xFFFF) & (PWM_Duty << 2);
  1394   00097C  C05C  F045         	movff	main@PWM_Duty_697,??_main
  1395   000980  C05D  F046         	movff	main@PWM_Duty_697+1,??_main+1
  1396   000984  90D8               	bcf	status,0,c
  1397   000986  3645               	rlcf	??_main^0,f,c
  1398   000988  3646               	rlcf	(??_main+1)^0,f,c
  1399   00098A  90D8               	bcf	status,0,c
  1400   00098C  3645               	rlcf	??_main^0,f,c
  1401   00098E  3646               	rlcf	(??_main+1)^0,f,c
  1402   000990  C045  F05C         	movff	??_main,main@PWM_Duty_697
  1403   000994  C046  F05D         	movff	??_main+1,main@PWM_Duty_697+1
  1404   000998                     
  1405                           ;FREQ_DISP_3_NGT.c: 262:                 PDC0L = PWM_Duty & 0xFF;
  1406   000998  C05C  FF91         	movff	main@PWM_Duty_697,3985	;volatile
  1407   00099C                     
  1408                           ;FREQ_DISP_3_NGT.c: 263:                 PDC0H = (PWM_Duty >> 8);
  1409   00099C  505D               	movf	(main@PWM_Duty_697+1)^0,w,c
  1410   00099E  6E90               	movwf	144,c	;volatile
  1411   0009A0                     
  1412                           ;FREQ_DISP_3_NGT.c: 264:                 _delay((unsigned long)((85)*(10000000/4000000.0
      +                          )));
  1413   0009A0  0E46               	movlw	70
  1414   0009A2                     u2587:
  1415   0009A2  2EE8               	decfsz	wreg,f,c
  1416   0009A4  D7FE               	bra	u2587
  1417   0009A6  D000               	nop2	
  1418   0009A8                     
  1419                           ;FREQ_DISP_3_NGT.c: 265:             }
  1420   0009A8  0664               	decf	main@i^0,f,c
  1421   0009AA  EFAA  F004         	goto	l2380
  1422   0009AE                     l122:
  1423                           
  1424                           ;FREQ_DISP_3_NGT.c: 266:                                                       for (i = 
      +                          0; i < count; i++) {
  1425   0009AE  6A64               	clrf	main@i^0,c
  1426   0009B0  EFFB  F004         	goto	l2410
  1427   0009B4                     l2398:
  1428                           
  1429                           ;FREQ_DISP_3_NGT.c: 267:                 uint16_t PWM_Duty = sine_table1[i];
  1430   0009B4  5064               	movf	main@i^0,w,c
  1431   0009B6  0D02               	mullw	2
  1432   0009B8  50F3               	movf	243,w,c
  1433   0009BA  0F6A               	addlw	low _sine_table1
  1434   0009BC  6ED9               	movwf	fsr2l,c
  1435   0009BE  6ADA               	clrf	fsr2h,c
  1436   0009C0  CFDE F05E          	movff	postinc2,main@PWM_Duty_698
  1437   0009C4  CFDD F05F          	movff	postdec2,main@PWM_Duty_698+1
  1438   0009C8                     
  1439                           ;FREQ_DISP_3_NGT.c: 268:                 PWM_Duty = (0xFFFF) & (PWM_Duty << 2);
  1440   0009C8  C05E  F045         	movff	main@PWM_Duty_698,??_main
  1441   0009CC  C05F  F046         	movff	main@PWM_Duty_698+1,??_main+1
  1442   0009D0  90D8               	bcf	status,0,c
  1443   0009D2  3645               	rlcf	??_main^0,f,c
  1444   0009D4  3646               	rlcf	(??_main+1)^0,f,c
  1445   0009D6  90D8               	bcf	status,0,c
  1446   0009D8  3645               	rlcf	??_main^0,f,c
  1447   0009DA  3646               	rlcf	(??_main+1)^0,f,c
  1448   0009DC  C045  F05E         	movff	??_main,main@PWM_Duty_698
  1449   0009E0  C046  F05F         	movff	??_main+1,main@PWM_Duty_698+1
  1450   0009E4                     
  1451                           ;FREQ_DISP_3_NGT.c: 269:                 PDC0L = PWM_Duty & 0xFF;
  1452   0009E4  C05E  FF91         	movff	main@PWM_Duty_698,3985	;volatile
  1453   0009E8                     
  1454                           ;FREQ_DISP_3_NGT.c: 270:                 PDC0H = (PWM_Duty >> 8);
  1455   0009E8  505F               	movf	(main@PWM_Duty_698+1)^0,w,c
  1456   0009EA  6E90               	movwf	144,c	;volatile
  1457   0009EC                     
  1458                           ;FREQ_DISP_3_NGT.c: 271:                 _delay((unsigned long)((85)*(10000000/4000000.0
      +                          )));
  1459   0009EC  0E46               	movlw	70
  1460   0009EE                     u2597:
  1461   0009EE  2EE8               	decfsz	wreg,f,c
  1462   0009F0  D7FE               	bra	u2597
  1463   0009F2  D000               	nop2	
  1464   0009F4                     
  1465                           ;FREQ_DISP_3_NGT.c: 272:             }
  1466   0009F4  2A64               	incf	main@i^0,f,c
  1467   0009F6                     l2410:
  1468   0009F6  5063               	movf	main@count^0,w,c
  1469   0009F8  5C64               	subwf	main@i^0,w,c
  1470   0009FA  A0D8               	btfss	status,0,c
  1471   0009FC  EF02  F005         	goto	u2551
  1472   000A00  EF04  F005         	goto	u2550
  1473   000A04                     u2551:
  1474   000A04  EFDA  F004         	goto	l2398
  1475   000A08                     u2550:
  1476   000A08                     
  1477                           ;FREQ_DISP_3_NGT.c: 273:             Start_HSM = 0;
  1478   000A08  6A6F               	clrf	_Start_HSM^0,c	;volatile
  1479                           
  1480                           ;FREQ_DISP_3_NGT.c: 274:             edge = 0;
  1481   000A0A  6A56               	clrf	main@edge^0,c
  1482   000A0C  EFE4  F002         	goto	l2304
  1483   000A10  EF5B  F000         	goto	start
  1484   000A14                     __end_of_main:
  1485                           	callstack 0
  1486                           
  1487 ;; *************** function ___xxtofl *****************
  1488 ;; Defined at:
  1489 ;;		line 10 in file "C:\Program Files\Microchip\xc8\v3.00\pic\sources\c99\common\xxtofl.c"
  1490 ;; Parameters:    Size  Location     Type
  1491 ;;  sign            1    wreg     unsigned char 
  1492 ;;  val             4    3[COMRAM] long 
  1493 ;; Auto vars:     Size  Location     Type
  1494 ;;  sign            1   11[COMRAM] unsigned char 
  1495 ;;  arg             4   13[COMRAM] unsigned long 
  1496 ;;  exp             1   12[COMRAM] unsigned char 
  1497 ;; Return value:  Size  Location     Type
  1498 ;;                  4    3[COMRAM] unsigned char 
  1499 ;; Registers used:
  1500 ;;		wreg, status,2, status,0
  1501 ;; Tracked objects:
  1502 ;;		On entry : 0/0
  1503 ;;		On exit  : 0/0
  1504 ;;		Unchanged: 0/0
  1505 ;; Data sizes:     COMRAM   BANK0
  1506 ;;      Params:         4       0
  1507 ;;      Locals:         6       0
  1508 ;;      Temps:          4       0
  1509 ;;      Totals:        14       0
  1510 ;;Total ram usage:       14 bytes
  1511 ;; Hardware stack levels used: 1
  1512 ;; Hardware stack levels required when called: 1
  1513 ;; This function calls:
  1514 ;;		Nothing
  1515 ;; This function is called by:
  1516 ;;		_main
  1517 ;; This function uses a non-reentrant model
  1518 ;;
  1519                           
  1520                           	psect	text1
  1521   0011CA                     __ptext1:
  1522                           	callstack 0
  1523   0011CA                     ___xxtofl:
  1524                           	callstack 29
  1525                           
  1526                           ;incstack = 0
  1527                           ;___xxtofl@sign stored from wreg
  1528   0011CA  6E0C               	movwf	___xxtofl@sign^0,c
  1529   0011CC  500C               	movf	___xxtofl@sign^0,w,c
  1530   0011CE  B4D8               	btfsc	status,2,c
  1531   0011D0  EFEC  F008         	goto	u2331
  1532   0011D4  EFEE  F008         	goto	u2330
  1533   0011D8                     u2331:
  1534   0011D8  EF10  F009         	goto	l786
  1535   0011DC                     u2330:
  1536   0011DC  BE07               	btfsc	(___xxtofl@val+3)^0,7,c
  1537   0011DE  EFF5  F008         	goto	u2340
  1538   0011E2  EFF3  F008         	goto	u2341
  1539   0011E6                     u2341:
  1540   0011E6  EF10  F009         	goto	l786
  1541   0011EA                     u2340:
  1542   0011EA  C004  F008         	movff	___xxtofl@val,??___xxtofl
  1543   0011EE  C005  F009         	movff	___xxtofl@val+1,??___xxtofl+1
  1544   0011F2  C006  F00A         	movff	___xxtofl@val+2,??___xxtofl+2
  1545   0011F6  C007  F00B         	movff	___xxtofl@val+3,??___xxtofl+3
  1546   0011FA  1E08               	comf	??___xxtofl^0,f,c
  1547   0011FC  1E09               	comf	(??___xxtofl+1)^0,f,c
  1548   0011FE  1E0A               	comf	(??___xxtofl+2)^0,f,c
  1549   001200  1E0B               	comf	(??___xxtofl+3)^0,f,c
  1550   001202  2A08               	incf	??___xxtofl^0,f,c
  1551   001204  0E00               	movlw	0
  1552   001206  2209               	addwfc	(??___xxtofl+1)^0,f,c
  1553   001208  220A               	addwfc	(??___xxtofl+2)^0,f,c
  1554   00120A  220B               	addwfc	(??___xxtofl+3)^0,f,c
  1555   00120C  C008  F00E         	movff	??___xxtofl,___xxtofl@arg
  1556   001210  C009  F00F         	movff	??___xxtofl+1,___xxtofl@arg+1
  1557   001214  C00A  F010         	movff	??___xxtofl+2,___xxtofl@arg+2
  1558   001218  C00B  F011         	movff	??___xxtofl+3,___xxtofl@arg+3
  1559   00121C  EF18  F009         	goto	l2254
  1560   001220                     l786:
  1561   001220  C004  F00E         	movff	___xxtofl@val,___xxtofl@arg
  1562   001224  C005  F00F         	movff	___xxtofl@val+1,___xxtofl@arg+1
  1563   001228  C006  F010         	movff	___xxtofl@val+2,___xxtofl@arg+2
  1564   00122C  C007  F011         	movff	___xxtofl@val+3,___xxtofl@arg+3
  1565   001230                     l2254:
  1566   001230  5004               	movf	___xxtofl@val^0,w,c
  1567   001232  1005               	iorwf	(___xxtofl@val+1)^0,w,c
  1568   001234  1006               	iorwf	(___xxtofl@val+2)^0,w,c
  1569   001236  1007               	iorwf	(___xxtofl@val+3)^0,w,c
  1570   001238  A4D8               	btfss	status,2,c
  1571   00123A  EF21  F009         	goto	u2351
  1572   00123E  EF23  F009         	goto	u2350
  1573   001242                     u2351:
  1574   001242  EF2D  F009         	goto	l2260
  1575   001246                     u2350:
  1576   001246  0E00               	movlw	0
  1577   001248  6E04               	movwf	?___xxtofl^0,c
  1578   00124A  0E00               	movlw	0
  1579   00124C  6E05               	movwf	(?___xxtofl+1)^0,c
  1580   00124E  0E00               	movlw	0
  1581   001250  6E06               	movwf	(?___xxtofl+2)^0,c
  1582   001252  0E00               	movlw	0
  1583   001254  6E07               	movwf	(?___xxtofl+3)^0,c
  1584   001256  EFBE  F009         	goto	l789
  1585   00125A                     l2260:
  1586   00125A  0E96               	movlw	150
  1587   00125C  6E0D               	movwf	___xxtofl@exp^0,c
  1588   00125E  EF37  F009         	goto	l2264
  1589   001262                     l2262:
  1590   001262  2A0D               	incf	___xxtofl@exp^0,f,c
  1591   001264  90D8               	bcf	status,0,c
  1592   001266  3211               	rrcf	(___xxtofl@arg+3)^0,f,c
  1593   001268  3210               	rrcf	(___xxtofl@arg+2)^0,f,c
  1594   00126A  320F               	rrcf	(___xxtofl@arg+1)^0,f,c
  1595   00126C  320E               	rrcf	___xxtofl@arg^0,f,c
  1596   00126E                     l2264:
  1597   00126E  0E00               	movlw	0
  1598   001270  140E               	andwf	___xxtofl@arg^0,w,c
  1599   001272  6E08               	movwf	??___xxtofl^0,c
  1600   001274  0E00               	movlw	0
  1601   001276  140F               	andwf	(___xxtofl@arg+1)^0,w,c
  1602   001278  6E09               	movwf	(??___xxtofl+1)^0,c
  1603   00127A  0E00               	movlw	0
  1604   00127C  1410               	andwf	(___xxtofl@arg+2)^0,w,c
  1605   00127E  6E0A               	movwf	(??___xxtofl+2)^0,c
  1606   001280  0EFE               	movlw	254
  1607   001282  1411               	andwf	(___xxtofl@arg+3)^0,w,c
  1608   001284  6E0B               	movwf	(??___xxtofl+3)^0,c
  1609   001286  5008               	movf	??___xxtofl^0,w,c
  1610   001288  1009               	iorwf	(??___xxtofl+1)^0,w,c
  1611   00128A  100A               	iorwf	(??___xxtofl+2)^0,w,c
  1612   00128C  100B               	iorwf	(??___xxtofl+3)^0,w,c
  1613   00128E  A4D8               	btfss	status,2,c
  1614   001290  EF4C  F009         	goto	u2361
  1615   001294  EF4E  F009         	goto	u2360
  1616   001298                     u2361:
  1617   001298  EF31  F009         	goto	l2262
  1618   00129C                     u2360:
  1619   00129C  EF5C  F009         	goto	l793
  1620   0012A0                     l2266:
  1621   0012A0  2A0D               	incf	___xxtofl@exp^0,f,c
  1622   0012A2  0E01               	movlw	1
  1623   0012A4  260E               	addwf	___xxtofl@arg^0,f,c
  1624   0012A6  0E00               	movlw	0
  1625   0012A8  220F               	addwfc	(___xxtofl@arg+1)^0,f,c
  1626   0012AA  2210               	addwfc	(___xxtofl@arg+2)^0,f,c
  1627   0012AC  2211               	addwfc	(___xxtofl@arg+3)^0,f,c
  1628   0012AE  90D8               	bcf	status,0,c
  1629   0012B0  3211               	rrcf	(___xxtofl@arg+3)^0,f,c
  1630   0012B2  3210               	rrcf	(___xxtofl@arg+2)^0,f,c
  1631   0012B4  320F               	rrcf	(___xxtofl@arg+1)^0,f,c
  1632   0012B6  320E               	rrcf	___xxtofl@arg^0,f,c
  1633   0012B8                     l793:
  1634   0012B8  0E00               	movlw	0
  1635   0012BA  140E               	andwf	___xxtofl@arg^0,w,c
  1636   0012BC  6E08               	movwf	??___xxtofl^0,c
  1637   0012BE  0E00               	movlw	0
  1638   0012C0  140F               	andwf	(___xxtofl@arg+1)^0,w,c
  1639   0012C2  6E09               	movwf	(??___xxtofl+1)^0,c
  1640   0012C4  0E00               	movlw	0
  1641   0012C6  1410               	andwf	(___xxtofl@arg+2)^0,w,c
  1642   0012C8  6E0A               	movwf	(??___xxtofl+2)^0,c
  1643   0012CA  0EFF               	movlw	255
  1644   0012CC  1411               	andwf	(___xxtofl@arg+3)^0,w,c
  1645   0012CE  6E0B               	movwf	(??___xxtofl+3)^0,c
  1646   0012D0  5008               	movf	??___xxtofl^0,w,c
  1647   0012D2  1009               	iorwf	(??___xxtofl+1)^0,w,c
  1648   0012D4  100A               	iorwf	(??___xxtofl+2)^0,w,c
  1649   0012D6  100B               	iorwf	(??___xxtofl+3)^0,w,c
  1650   0012D8  A4D8               	btfss	status,2,c
  1651   0012DA  EF71  F009         	goto	u2371
  1652   0012DE  EF73  F009         	goto	u2370
  1653   0012E2                     u2371:
  1654   0012E2  EF50  F009         	goto	l2266
  1655   0012E6                     u2370:
  1656   0012E6  EF7B  F009         	goto	l2274
  1657   0012EA                     l2272:
  1658   0012EA  060D               	decf	___xxtofl@exp^0,f,c
  1659   0012EC  90D8               	bcf	status,0,c
  1660   0012EE  360E               	rlcf	___xxtofl@arg^0,f,c
  1661   0012F0  360F               	rlcf	(___xxtofl@arg+1)^0,f,c
  1662   0012F2  3610               	rlcf	(___xxtofl@arg+2)^0,f,c
  1663   0012F4  3611               	rlcf	(___xxtofl@arg+3)^0,f,c
  1664   0012F6                     l2274:
  1665   0012F6  BE10               	btfsc	(___xxtofl@arg+2)^0,7,c
  1666   0012F8  EF80  F009         	goto	u2381
  1667   0012FC  EF82  F009         	goto	u2380
  1668   001300                     u2381:
  1669   001300  EF8A  F009         	goto	l800
  1670   001304                     u2380:
  1671   001304  0E02               	movlw	2
  1672   001306  600D               	cpfslt	___xxtofl@exp^0,c
  1673   001308  EF88  F009         	goto	u2391
  1674   00130C  EF8A  F009         	goto	u2390
  1675   001310                     u2391:
  1676   001310  EF75  F009         	goto	l2272
  1677   001314                     u2390:
  1678   001314                     l800:
  1679   001314  B00D               	btfsc	___xxtofl@exp^0,0,c
  1680   001316  EF8F  F009         	goto	u2401
  1681   00131A  EF91  F009         	goto	u2400
  1682   00131E                     u2401:
  1683   00131E  EF92  F009         	goto	l2280
  1684   001322                     u2400:
  1685   001322  9E10               	bcf	(___xxtofl@arg+2)^0,7,c
  1686   001324                     l2280:
  1687   001324  90D8               	bcf	status,0,c
  1688   001326  320D               	rrcf	___xxtofl@exp^0,f,c
  1689   001328  C00D  F008         	movff	___xxtofl@exp,??___xxtofl
  1690   00132C  6A09               	clrf	(??___xxtofl+1)^0,c
  1691   00132E  6A0A               	clrf	(??___xxtofl+2)^0,c
  1692   001330  6A0B               	clrf	(??___xxtofl+3)^0,c
  1693   001332  C008  F00B         	movff	??___xxtofl,??___xxtofl+3
  1694   001336  6A0A               	clrf	(??___xxtofl+2)^0,c
  1695   001338  6A09               	clrf	(??___xxtofl+1)^0,c
  1696   00133A  6A08               	clrf	??___xxtofl^0,c
  1697   00133C  5008               	movf	??___xxtofl^0,w,c
  1698   00133E  120E               	iorwf	___xxtofl@arg^0,f,c
  1699   001340  5009               	movf	(??___xxtofl+1)^0,w,c
  1700   001342  120F               	iorwf	(___xxtofl@arg+1)^0,f,c
  1701   001344  500A               	movf	(??___xxtofl+2)^0,w,c
  1702   001346  1210               	iorwf	(___xxtofl@arg+2)^0,f,c
  1703   001348  500B               	movf	(??___xxtofl+3)^0,w,c
  1704   00134A  1211               	iorwf	(___xxtofl@arg+3)^0,f,c
  1705   00134C  500C               	movf	___xxtofl@sign^0,w,c
  1706   00134E  B4D8               	btfsc	status,2,c
  1707   001350  EFAC  F009         	goto	u2411
  1708   001354  EFAE  F009         	goto	u2410
  1709   001358                     u2411:
  1710   001358  EFB6  F009         	goto	l2290
  1711   00135C                     u2410:
  1712   00135C  BE07               	btfsc	(___xxtofl@val+3)^0,7,c
  1713   00135E  EFB5  F009         	goto	u2420
  1714   001362  EFB3  F009         	goto	u2421
  1715   001366                     u2421:
  1716   001366  EFB6  F009         	goto	l2290
  1717   00136A                     u2420:
  1718   00136A  8E11               	bsf	(___xxtofl@arg+3)^0,7,c
  1719   00136C                     l2290:
  1720   00136C  C00E  F004         	movff	___xxtofl@arg,?___xxtofl
  1721   001370  C00F  F005         	movff	___xxtofl@arg+1,?___xxtofl+1
  1722   001374  C010  F006         	movff	___xxtofl@arg+2,?___xxtofl+2
  1723   001378  C011  F007         	movff	___xxtofl@arg+3,?___xxtofl+3
  1724   00137C                     l789:
  1725   00137C  0012               	return		;funcret
  1726   00137E                     __end_of___xxtofl:
  1727                           	callstack 0
  1728                           
  1729 ;; *************** function ___lmul *****************
  1730 ;; Defined at:
  1731 ;;		line 15 in file "C:\Program Files\Microchip\xc8\v3.00\pic\sources\c99\common\Umul32.c"
  1732 ;; Parameters:    Size  Location     Type
  1733 ;;  multiplier      4    3[COMRAM] unsigned long 
  1734 ;;  multiplicand    4    7[COMRAM] unsigned long 
  1735 ;; Auto vars:     Size  Location     Type
  1736 ;;  product         4   11[COMRAM] unsigned long 
  1737 ;; Return value:  Size  Location     Type
  1738 ;;                  4    3[COMRAM] unsigned long 
  1739 ;; Registers used:
  1740 ;;		wreg, status,2, status,0
  1741 ;; Tracked objects:
  1742 ;;		On entry : 0/0
  1743 ;;		On exit  : 0/0
  1744 ;;		Unchanged: 0/0
  1745 ;; Data sizes:     COMRAM   BANK0
  1746 ;;      Params:         8       0
  1747 ;;      Locals:         4       0
  1748 ;;      Temps:          0       0
  1749 ;;      Totals:        12       0
  1750 ;;Total ram usage:       12 bytes
  1751 ;; Hardware stack levels used: 1
  1752 ;; Hardware stack levels required when called: 1
  1753 ;; This function calls:
  1754 ;;		Nothing
  1755 ;; This function is called by:
  1756 ;;		_main
  1757 ;; This function uses a non-reentrant model
  1758 ;;
  1759                           
  1760                           	psect	text2
  1761   0016C6                     __ptext2:
  1762                           	callstack 0
  1763   0016C6                     ___lmul:
  1764                           	callstack 29
  1765   0016C6  0E00               	movlw	0
  1766   0016C8  6E0C               	movwf	___lmul@product^0,c
  1767   0016CA  0E00               	movlw	0
  1768   0016CC  6E0D               	movwf	(___lmul@product+1)^0,c
  1769   0016CE  0E00               	movlw	0
  1770   0016D0  6E0E               	movwf	(___lmul@product+2)^0,c
  1771   0016D2  0E00               	movlw	0
  1772   0016D4  6E0F               	movwf	(___lmul@product+3)^0,c
  1773   0016D6                     l1694:
  1774   0016D6  A004               	btfss	___lmul@multiplier^0,0,c
  1775   0016D8  EF70  F00B         	goto	u1371
  1776   0016DC  EF72  F00B         	goto	u1370
  1777   0016E0                     u1371:
  1778   0016E0  EF7A  F00B         	goto	l1698
  1779   0016E4                     u1370:
  1780   0016E4  5008               	movf	___lmul@multiplicand^0,w,c
  1781   0016E6  260C               	addwf	___lmul@product^0,f,c
  1782   0016E8  5009               	movf	(___lmul@multiplicand+1)^0,w,c
  1783   0016EA  220D               	addwfc	(___lmul@product+1)^0,f,c
  1784   0016EC  500A               	movf	(___lmul@multiplicand+2)^0,w,c
  1785   0016EE  220E               	addwfc	(___lmul@product+2)^0,f,c
  1786   0016F0  500B               	movf	(___lmul@multiplicand+3)^0,w,c
  1787   0016F2  220F               	addwfc	(___lmul@product+3)^0,f,c
  1788   0016F4                     l1698:
  1789   0016F4  90D8               	bcf	status,0,c
  1790   0016F6  3608               	rlcf	___lmul@multiplicand^0,f,c
  1791   0016F8  3609               	rlcf	(___lmul@multiplicand+1)^0,f,c
  1792   0016FA  360A               	rlcf	(___lmul@multiplicand+2)^0,f,c
  1793   0016FC  360B               	rlcf	(___lmul@multiplicand+3)^0,f,c
  1794   0016FE  90D8               	bcf	status,0,c
  1795   001700  3207               	rrcf	(___lmul@multiplier+3)^0,f,c
  1796   001702  3206               	rrcf	(___lmul@multiplier+2)^0,f,c
  1797   001704  3205               	rrcf	(___lmul@multiplier+1)^0,f,c
  1798   001706  3204               	rrcf	___lmul@multiplier^0,f,c
  1799   001708  5004               	movf	___lmul@multiplier^0,w,c
  1800   00170A  1005               	iorwf	(___lmul@multiplier+1)^0,w,c
  1801   00170C  1006               	iorwf	(___lmul@multiplier+2)^0,w,c
  1802   00170E  1007               	iorwf	(___lmul@multiplier+3)^0,w,c
  1803   001710  A4D8               	btfss	status,2,c
  1804   001712  EF8D  F00B         	goto	u1381
  1805   001716  EF8F  F00B         	goto	u1380
  1806   00171A                     u1381:
  1807   00171A  EF6B  F00B         	goto	l1694
  1808   00171E                     u1380:
  1809   00171E  C00C  F004         	movff	___lmul@product,?___lmul
  1810   001722  C00D  F005         	movff	___lmul@product+1,?___lmul+1
  1811   001726  C00E  F006         	movff	___lmul@product+2,?___lmul+2
  1812   00172A  C00F  F007         	movff	___lmul@product+3,?___lmul+3
  1813   00172E  0012               	return		;funcret
  1814   001730                     __end_of___lmul:
  1815                           	callstack 0
  1816                           
  1817 ;; *************** function ___fltol *****************
  1818 ;; Defined at:
  1819 ;;		line 43 in file "C:\Program Files\Microchip\xc8\v3.00\pic\sources\c99\common\fltol.c"
  1820 ;; Parameters:    Size  Location     Type
  1821 ;;  f1              4   58[COMRAM] unsigned long 
  1822 ;; Auto vars:     Size  Location     Type
  1823 ;;  exp1            1   67[COMRAM] unsigned char 
  1824 ;;  sign1           1   66[COMRAM] unsigned char 
  1825 ;; Return value:  Size  Location     Type
  1826 ;;                  4   58[COMRAM] long 
  1827 ;; Registers used:
  1828 ;;		wreg, status,2, status,0
  1829 ;; Tracked objects:
  1830 ;;		On entry : 0/0
  1831 ;;		On exit  : 0/0
  1832 ;;		Unchanged: 0/0
  1833 ;; Data sizes:     COMRAM   BANK0
  1834 ;;      Params:         4       0
  1835 ;;      Locals:         2       0
  1836 ;;      Temps:          4       0
  1837 ;;      Totals:        10       0
  1838 ;;Total ram usage:       10 bytes
  1839 ;; Hardware stack levels used: 1
  1840 ;; Hardware stack levels required when called: 1
  1841 ;; This function calls:
  1842 ;;		Nothing
  1843 ;; This function is called by:
  1844 ;;		_main
  1845 ;; This function uses a non-reentrant model
  1846 ;;
  1847                           
  1848                           	psect	text3
  1849   001488                     __ptext3:
  1850                           	callstack 0
  1851   001488                     ___fltol:
  1852                           	callstack 29
  1853   001488  343D               	rlcf	(___fltol@f1+2)^0,w,c
  1854   00148A  343E               	rlcf	(___fltol@f1+3)^0,w,c
  1855   00148C  6E44               	movwf	___fltol@exp1^0,c
  1856   00148E  5044               	movf	___fltol@exp1^0,w,c
  1857   001490  A4D8               	btfss	status,2,c
  1858   001492  EF4D  F00A         	goto	u2261
  1859   001496  EF4F  F00A         	goto	u2260
  1860   00149A                     u2261:
  1861   00149A  EF59  F00A         	goto	l2210
  1862   00149E                     u2260:
  1863   00149E                     l2206:
  1864   00149E  0E00               	movlw	0
  1865   0014A0  6E3B               	movwf	?___fltol^0,c
  1866   0014A2  0E00               	movlw	0
  1867   0014A4  6E3C               	movwf	(?___fltol+1)^0,c
  1868   0014A6  0E00               	movlw	0
  1869   0014A8  6E3D               	movwf	(?___fltol+2)^0,c
  1870   0014AA  0E00               	movlw	0
  1871   0014AC  6E3E               	movwf	(?___fltol+3)^0,c
  1872   0014AE  EFC6  F00A         	goto	l428
  1873   0014B2                     l2210:
  1874   0014B2  C03B  F03F         	movff	___fltol@f1,??___fltol
  1875   0014B6  C03C  F040         	movff	___fltol@f1+1,??___fltol+1
  1876   0014BA  C03D  F041         	movff	___fltol@f1+2,??___fltol+2
  1877   0014BE  C03E  F042         	movff	___fltol@f1+3,??___fltol+3
  1878   0014C2  0E20               	movlw	32
  1879   0014C4  EF69  F00A         	goto	u2270
  1880   0014C8                     u2275:
  1881   0014C8  90D8               	bcf	status,0,c
  1882   0014CA  3242               	rrcf	(??___fltol+3)^0,f,c
  1883   0014CC  3241               	rrcf	(??___fltol+2)^0,f,c
  1884   0014CE  3240               	rrcf	(??___fltol+1)^0,f,c
  1885   0014D0  323F               	rrcf	??___fltol^0,f,c
  1886   0014D2                     u2270:
  1887   0014D2  2EE8               	decfsz	wreg,f,c
  1888   0014D4  EF64  F00A         	goto	u2275
  1889   0014D8  503F               	movf	??___fltol^0,w,c
  1890   0014DA  6E43               	movwf	___fltol@sign1^0,c
  1891   0014DC  8E3D               	bsf	(___fltol@f1+2)^0,7,c
  1892   0014DE  0EFF               	movlw	255
  1893   0014E0  163B               	andwf	___fltol@f1^0,f,c
  1894   0014E2  0EFF               	movlw	255
  1895   0014E4  163C               	andwf	(___fltol@f1+1)^0,f,c
  1896   0014E6  0EFF               	movlw	255
  1897   0014E8  163D               	andwf	(___fltol@f1+2)^0,f,c
  1898   0014EA  0E00               	movlw	0
  1899   0014EC  163E               	andwf	(___fltol@f1+3)^0,f,c
  1900   0014EE  0E96               	movlw	150
  1901   0014F0  5E44               	subwf	___fltol@exp1^0,f,c
  1902   0014F2  BE44               	btfsc	___fltol@exp1^0,7,c
  1903   0014F4  EF80  F00A         	goto	u2280
  1904   0014F8  EF7E  F00A         	goto	u2281
  1905   0014FC                     u2281:
  1906   0014FC  EF96  F00A         	goto	l2230
  1907   001500                     u2280:
  1908   001500  5044               	movf	___fltol@exp1^0,w,c
  1909   001502  0A80               	xorlw	128
  1910   001504  0F97               	addlw	151
  1911   001506  B0D8               	btfsc	status,0,c
  1912   001508  EF88  F00A         	goto	u2291
  1913   00150C  EF8A  F00A         	goto	u2290
  1914   001510                     u2291:
  1915   001510  EF8C  F00A         	goto	l2226
  1916   001514                     u2290:
  1917   001514  EF4F  F00A         	goto	l2206
  1918   001518                     l2226:
  1919   001518  90D8               	bcf	status,0,c
  1920   00151A  323E               	rrcf	(___fltol@f1+3)^0,f,c
  1921   00151C  323D               	rrcf	(___fltol@f1+2)^0,f,c
  1922   00151E  323C               	rrcf	(___fltol@f1+1)^0,f,c
  1923   001520  323B               	rrcf	___fltol@f1^0,f,c
  1924   001522  3E44               	incfsz	___fltol@exp1^0,f,c
  1925   001524  EF8C  F00A         	goto	l2226
  1926   001528  EFAE  F00A         	goto	l2240
  1927   00152C                     l2230:
  1928   00152C  0E1F               	movlw	31
  1929   00152E  6444               	cpfsgt	___fltol@exp1^0,c
  1930   001530  EF9C  F00A         	goto	u2301
  1931   001534  EF9E  F00A         	goto	u2300
  1932   001538                     u2301:
  1933   001538  EFA6  F00A         	goto	l2238
  1934   00153C                     u2300:
  1935   00153C  EF4F  F00A         	goto	l2206
  1936   001540                     l2236:
  1937   001540  90D8               	bcf	status,0,c
  1938   001542  363B               	rlcf	___fltol@f1^0,f,c
  1939   001544  363C               	rlcf	(___fltol@f1+1)^0,f,c
  1940   001546  363D               	rlcf	(___fltol@f1+2)^0,f,c
  1941   001548  363E               	rlcf	(___fltol@f1+3)^0,f,c
  1942   00154A  0644               	decf	___fltol@exp1^0,f,c
  1943   00154C                     l2238:
  1944   00154C  5044               	movf	___fltol@exp1^0,w,c
  1945   00154E  A4D8               	btfss	status,2,c
  1946   001550  EFAC  F00A         	goto	u2311
  1947   001554  EFAE  F00A         	goto	u2310
  1948   001558                     u2311:
  1949   001558  EFA0  F00A         	goto	l2236
  1950   00155C                     u2310:
  1951   00155C                     l2240:
  1952   00155C  5043               	movf	___fltol@sign1^0,w,c
  1953   00155E  B4D8               	btfsc	status,2,c
  1954   001560  EFB4  F00A         	goto	u2321
  1955   001564  EFB6  F00A         	goto	u2320
  1956   001568                     u2321:
  1957   001568  EFBE  F00A         	goto	l2244
  1958   00156C                     u2320:
  1959   00156C  1E3E               	comf	(___fltol@f1+3)^0,f,c
  1960   00156E  1E3D               	comf	(___fltol@f1+2)^0,f,c
  1961   001570  1E3C               	comf	(___fltol@f1+1)^0,f,c
  1962   001572  6C3B               	negf	___fltol@f1^0,c
  1963   001574  0E00               	movlw	0
  1964   001576  223C               	addwfc	(___fltol@f1+1)^0,f,c
  1965   001578  223D               	addwfc	(___fltol@f1+2)^0,f,c
  1966   00157A  223E               	addwfc	(___fltol@f1+3)^0,f,c
  1967   00157C                     l2244:
  1968   00157C  C03B  F03B         	movff	___fltol@f1,?___fltol
  1969   001580  C03C  F03C         	movff	___fltol@f1+1,?___fltol+1
  1970   001584  C03D  F03D         	movff	___fltol@f1+2,?___fltol+2
  1971   001588  C03E  F03E         	movff	___fltol@f1+3,?___fltol+3
  1972   00158C                     l428:
  1973   00158C  0012               	return		;funcret
  1974   00158E                     __end_of___fltol:
  1975                           	callstack 0
  1976                           
  1977 ;; *************** function ___flmul *****************
  1978 ;; Defined at:
  1979 ;;		line 8 in file "C:\Program Files\Microchip\xc8\v3.00\pic\sources\c99\common\sprcmul.c"
  1980 ;; Parameters:    Size  Location     Type
  1981 ;;  b               4   17[COMRAM] long 
  1982 ;;  a               4   21[COMRAM] long 
  1983 ;; Auto vars:     Size  Location     Type
  1984 ;;  prod            4   36[COMRAM] struct .
  1985 ;;  grs             4   30[COMRAM] unsigned long 
  1986 ;;  temp            2   40[COMRAM] struct .
  1987 ;;  bexp            1   35[COMRAM] unsigned char 
  1988 ;;  aexp            1   34[COMRAM] unsigned char 
  1989 ;;  sign            1   29[COMRAM] unsigned char 
  1990 ;; Return value:  Size  Location     Type
  1991 ;;                  4   17[COMRAM] unsigned char 
  1992 ;; Registers used:
  1993 ;;		wreg, status,2, status,0, prodl, prodh
  1994 ;; Tracked objects:
  1995 ;;		On entry : 0/0
  1996 ;;		On exit  : 0/0
  1997 ;;		Unchanged: 0/0
  1998 ;; Data sizes:     COMRAM   BANK0
  1999 ;;      Params:         8       0
  2000 ;;      Locals:        13       0
  2001 ;;      Temps:          4       0
  2002 ;;      Totals:        25       0
  2003 ;;Total ram usage:       25 bytes
  2004 ;; Hardware stack levels used: 1
  2005 ;; Hardware stack levels required when called: 1
  2006 ;; This function calls:
  2007 ;;		Nothing
  2008 ;; This function is called by:
  2009 ;;		_main
  2010 ;; This function uses a non-reentrant model
  2011 ;;
  2012                           
  2013                           	psect	text4
  2014   000A14                     __ptext4:
  2015                           	callstack 0
  2016   000A14                     ___flmul:
  2017                           	callstack 29
  2018   000A14  5015               	movf	(___flmul@b+3)^0,w,c
  2019   000A16  0B80               	andlw	128
  2020   000A18  6E1E               	movwf	___flmul@sign^0,c
  2021   000A1A  5015               	movf	(___flmul@b+3)^0,w,c
  2022   000A1C  2415               	addwf	(___flmul@b+3)^0,w,c
  2023   000A1E  6E24               	movwf	___flmul@bexp^0,c
  2024   000A20  AE14               	btfss	(___flmul@b+2)^0,7,c
  2025   000A22  EF15  F005         	goto	u2071
  2026   000A26  EF17  F005         	goto	u2070
  2027   000A2A                     u2071:
  2028   000A2A  EF18  F005         	goto	l2082
  2029   000A2E                     u2070:
  2030   000A2E  8024               	bsf	___flmul@bexp^0,0,c
  2031   000A30                     l2082:
  2032   000A30  5024               	movf	___flmul@bexp^0,w,c
  2033   000A32  B4D8               	btfsc	status,2,c
  2034   000A34  EF1E  F005         	goto	u2081
  2035   000A38  EF20  F005         	goto	u2080
  2036   000A3C                     u2081:
  2037   000A3C  EF33  F005         	goto	l2090
  2038   000A40                     u2080:
  2039   000A40  2824               	incf	___flmul@bexp^0,w,c
  2040   000A42  A4D8               	btfss	status,2,c
  2041   000A44  EF26  F005         	goto	u2091
  2042   000A48  EF28  F005         	goto	u2090
  2043   000A4C                     u2091:
  2044   000A4C  EF30  F005         	goto	l2088
  2045   000A50                     u2090:
  2046   000A50  0E00               	movlw	0
  2047   000A52  6E12               	movwf	___flmul@b^0,c
  2048   000A54  0E00               	movlw	0
  2049   000A56  6E13               	movwf	(___flmul@b+1)^0,c
  2050   000A58  0E00               	movlw	0
  2051   000A5A  6E14               	movwf	(___flmul@b+2)^0,c
  2052   000A5C  0E00               	movlw	0
  2053   000A5E  6E15               	movwf	(___flmul@b+3)^0,c
  2054   000A60                     l2088:
  2055   000A60  8E14               	bsf	(___flmul@b+2)^0,7,c
  2056   000A62  EF3B  F005         	goto	l2092
  2057   000A66                     l2090:
  2058   000A66  0E00               	movlw	0
  2059   000A68  6E12               	movwf	___flmul@b^0,c
  2060   000A6A  0E00               	movlw	0
  2061   000A6C  6E13               	movwf	(___flmul@b+1)^0,c
  2062   000A6E  0E00               	movlw	0
  2063   000A70  6E14               	movwf	(___flmul@b+2)^0,c
  2064   000A72  0E00               	movlw	0
  2065   000A74  6E15               	movwf	(___flmul@b+3)^0,c
  2066   000A76                     l2092:
  2067   000A76  5019               	movf	(___flmul@a+3)^0,w,c
  2068   000A78  0B80               	andlw	128
  2069   000A7A  1A1E               	xorwf	___flmul@sign^0,f,c
  2070   000A7C  5019               	movf	(___flmul@a+3)^0,w,c
  2071   000A7E  2419               	addwf	(___flmul@a+3)^0,w,c
  2072   000A80  6E23               	movwf	___flmul@aexp^0,c
  2073   000A82  AE18               	btfss	(___flmul@a+2)^0,7,c
  2074   000A84  EF46  F005         	goto	u2101
  2075   000A88  EF48  F005         	goto	u2100
  2076   000A8C                     u2101:
  2077   000A8C  EF49  F005         	goto	l2100
  2078   000A90                     u2100:
  2079   000A90  8023               	bsf	___flmul@aexp^0,0,c
  2080   000A92                     l2100:
  2081   000A92  5023               	movf	___flmul@aexp^0,w,c
  2082   000A94  B4D8               	btfsc	status,2,c
  2083   000A96  EF4F  F005         	goto	u2111
  2084   000A9A  EF51  F005         	goto	u2110
  2085   000A9E                     u2111:
  2086   000A9E  EF64  F005         	goto	l2108
  2087   000AA2                     u2110:
  2088   000AA2  2823               	incf	___flmul@aexp^0,w,c
  2089   000AA4  A4D8               	btfss	status,2,c
  2090   000AA6  EF57  F005         	goto	u2121
  2091   000AAA  EF59  F005         	goto	u2120
  2092   000AAE                     u2121:
  2093   000AAE  EF61  F005         	goto	l2106
  2094   000AB2                     u2120:
  2095   000AB2  0E00               	movlw	0
  2096   000AB4  6E16               	movwf	___flmul@a^0,c
  2097   000AB6  0E00               	movlw	0
  2098   000AB8  6E17               	movwf	(___flmul@a+1)^0,c
  2099   000ABA  0E00               	movlw	0
  2100   000ABC  6E18               	movwf	(___flmul@a+2)^0,c
  2101   000ABE  0E00               	movlw	0
  2102   000AC0  6E19               	movwf	(___flmul@a+3)^0,c
  2103   000AC2                     l2106:
  2104   000AC2  8E18               	bsf	(___flmul@a+2)^0,7,c
  2105   000AC4  EF6C  F005         	goto	l745
  2106   000AC8                     l2108:
  2107   000AC8  0E00               	movlw	0
  2108   000ACA  6E16               	movwf	___flmul@a^0,c
  2109   000ACC  0E00               	movlw	0
  2110   000ACE  6E17               	movwf	(___flmul@a+1)^0,c
  2111   000AD0  0E00               	movlw	0
  2112   000AD2  6E18               	movwf	(___flmul@a+2)^0,c
  2113   000AD4  0E00               	movlw	0
  2114   000AD6  6E19               	movwf	(___flmul@a+3)^0,c
  2115   000AD8                     l745:
  2116   000AD8  5023               	movf	___flmul@aexp^0,w,c
  2117   000ADA  B4D8               	btfsc	status,2,c
  2118   000ADC  EF72  F005         	goto	u2131
  2119   000AE0  EF74  F005         	goto	u2130
  2120   000AE4                     u2131:
  2121   000AE4  EF7C  F005         	goto	l2112
  2122   000AE8                     u2130:
  2123   000AE8  5024               	movf	___flmul@bexp^0,w,c
  2124   000AEA  A4D8               	btfss	status,2,c
  2125   000AEC  EF7A  F005         	goto	u2141
  2126   000AF0  EF7C  F005         	goto	u2140
  2127   000AF4                     u2141:
  2128   000AF4  EF86  F005         	goto	l2116
  2129   000AF8                     u2140:
  2130   000AF8                     l2112:
  2131   000AF8  0E00               	movlw	0
  2132   000AFA  6E12               	movwf	?___flmul^0,c
  2133   000AFC  0E00               	movlw	0
  2134   000AFE  6E13               	movwf	(?___flmul+1)^0,c
  2135   000B00  0E00               	movlw	0
  2136   000B02  6E14               	movwf	(?___flmul+2)^0,c
  2137   000B04  0E00               	movlw	0
  2138   000B06  6E15               	movwf	(?___flmul+3)^0,c
  2139   000B08  EF1C  F007         	goto	l749
  2140   000B0C                     l2116:
  2141   000B0C  5018               	movf	(___flmul@a+2)^0,w,c
  2142   000B0E  0212               	mulwf	___flmul@b^0,c
  2143   000B10  CFF3 F029          	movff	prodl,___flmul@temp
  2144   000B14  CFF4 F02A          	movff	prodh,___flmul@temp+1
  2145   000B18  5029               	movf	___flmul@temp^0,w,c
  2146   000B1A  6E1F               	movwf	___flmul@grs^0,c
  2147   000B1C  6A20               	clrf	(___flmul@grs+1)^0,c
  2148   000B1E  6A21               	clrf	(___flmul@grs+2)^0,c
  2149   000B20  6A22               	clrf	(___flmul@grs+3)^0,c
  2150   000B22  502A               	movf	(___flmul@temp+1)^0,w,c
  2151   000B24  6E25               	movwf	___flmul@prod^0,c
  2152   000B26  6A26               	clrf	(___flmul@prod+1)^0,c
  2153   000B28  6A27               	clrf	(___flmul@prod+2)^0,c
  2154   000B2A  6A28               	clrf	(___flmul@prod+3)^0,c
  2155   000B2C  5017               	movf	(___flmul@a+1)^0,w,c
  2156   000B2E  0213               	mulwf	(___flmul@b+1)^0,c
  2157   000B30  CFF3 F029          	movff	prodl,___flmul@temp
  2158   000B34  CFF4 F02A          	movff	prodh,___flmul@temp+1
  2159   000B38  5029               	movf	___flmul@temp^0,w,c
  2160   000B3A  261F               	addwf	___flmul@grs^0,f,c
  2161   000B3C  0E00               	movlw	0
  2162   000B3E  2220               	addwfc	(___flmul@grs+1)^0,f,c
  2163   000B40  2221               	addwfc	(___flmul@grs+2)^0,f,c
  2164   000B42  2222               	addwfc	(___flmul@grs+3)^0,f,c
  2165   000B44  502A               	movf	(___flmul@temp+1)^0,w,c
  2166   000B46  2625               	addwf	___flmul@prod^0,f,c
  2167   000B48  0E00               	movlw	0
  2168   000B4A  2226               	addwfc	(___flmul@prod+1)^0,f,c
  2169   000B4C  2227               	addwfc	(___flmul@prod+2)^0,f,c
  2170   000B4E  2228               	addwfc	(___flmul@prod+3)^0,f,c
  2171   000B50  5016               	movf	___flmul@a^0,w,c
  2172   000B52  0214               	mulwf	(___flmul@b+2)^0,c
  2173   000B54  CFF3 F029          	movff	prodl,___flmul@temp
  2174   000B58  CFF4 F02A          	movff	prodh,___flmul@temp+1
  2175   000B5C  5029               	movf	___flmul@temp^0,w,c
  2176   000B5E  261F               	addwf	___flmul@grs^0,f,c
  2177   000B60  0E00               	movlw	0
  2178   000B62  2220               	addwfc	(___flmul@grs+1)^0,f,c
  2179   000B64  2221               	addwfc	(___flmul@grs+2)^0,f,c
  2180   000B66  2222               	addwfc	(___flmul@grs+3)^0,f,c
  2181   000B68  502A               	movf	(___flmul@temp+1)^0,w,c
  2182   000B6A  2625               	addwf	___flmul@prod^0,f,c
  2183   000B6C  0E00               	movlw	0
  2184   000B6E  2226               	addwfc	(___flmul@prod+1)^0,f,c
  2185   000B70  2227               	addwfc	(___flmul@prod+2)^0,f,c
  2186   000B72  2228               	addwfc	(___flmul@prod+3)^0,f,c
  2187   000B74  C021  F022         	movff	___flmul@grs+2,___flmul@grs+3
  2188   000B78  C020  F021         	movff	___flmul@grs+1,___flmul@grs+2
  2189   000B7C  C01F  F020         	movff	___flmul@grs,___flmul@grs+1
  2190   000B80  6A1F               	clrf	___flmul@grs^0,c
  2191   000B82  5016               	movf	___flmul@a^0,w,c
  2192   000B84  0213               	mulwf	(___flmul@b+1)^0,c
  2193   000B86  CFF3 F029          	movff	prodl,___flmul@temp
  2194   000B8A  CFF4 F02A          	movff	prodh,___flmul@temp+1
  2195   000B8E  5029               	movf	___flmul@temp^0,w,c
  2196   000B90  261F               	addwf	___flmul@grs^0,f,c
  2197   000B92  502A               	movf	(___flmul@temp+1)^0,w,c
  2198   000B94  2220               	addwfc	(___flmul@grs+1)^0,f,c
  2199   000B96  0E00               	movlw	0
  2200   000B98  2221               	addwfc	(___flmul@grs+2)^0,f,c
  2201   000B9A  0E00               	movlw	0
  2202   000B9C  2222               	addwfc	(___flmul@grs+3)^0,f,c
  2203   000B9E  5017               	movf	(___flmul@a+1)^0,w,c
  2204   000BA0  0212               	mulwf	___flmul@b^0,c
  2205   000BA2  CFF3 F029          	movff	prodl,___flmul@temp
  2206   000BA6  CFF4 F02A          	movff	prodh,___flmul@temp+1
  2207   000BAA  5029               	movf	___flmul@temp^0,w,c
  2208   000BAC  261F               	addwf	___flmul@grs^0,f,c
  2209   000BAE  502A               	movf	(___flmul@temp+1)^0,w,c
  2210   000BB0  2220               	addwfc	(___flmul@grs+1)^0,f,c
  2211   000BB2  0E00               	movlw	0
  2212   000BB4  2221               	addwfc	(___flmul@grs+2)^0,f,c
  2213   000BB6  0E00               	movlw	0
  2214   000BB8  2222               	addwfc	(___flmul@grs+3)^0,f,c
  2215   000BBA  C021  F022         	movff	___flmul@grs+2,___flmul@grs+3
  2216   000BBE  C020  F021         	movff	___flmul@grs+1,___flmul@grs+2
  2217   000BC2  C01F  F020         	movff	___flmul@grs,___flmul@grs+1
  2218   000BC6  6A1F               	clrf	___flmul@grs^0,c
  2219   000BC8  5016               	movf	___flmul@a^0,w,c
  2220   000BCA  0212               	mulwf	___flmul@b^0,c
  2221   000BCC  CFF3 F029          	movff	prodl,___flmul@temp
  2222   000BD0  CFF4 F02A          	movff	prodh,___flmul@temp+1
  2223   000BD4  5029               	movf	___flmul@temp^0,w,c
  2224   000BD6  261F               	addwf	___flmul@grs^0,f,c
  2225   000BD8  502A               	movf	(___flmul@temp+1)^0,w,c
  2226   000BDA  2220               	addwfc	(___flmul@grs+1)^0,f,c
  2227   000BDC  0E00               	movlw	0
  2228   000BDE  2221               	addwfc	(___flmul@grs+2)^0,f,c
  2229   000BE0  0E00               	movlw	0
  2230   000BE2  2222               	addwfc	(___flmul@grs+3)^0,f,c
  2231   000BE4  5018               	movf	(___flmul@a+2)^0,w,c
  2232   000BE6  0213               	mulwf	(___flmul@b+1)^0,c
  2233   000BE8  CFF3 F029          	movff	prodl,___flmul@temp
  2234   000BEC  CFF4 F02A          	movff	prodh,___flmul@temp+1
  2235   000BF0  5029               	movf	___flmul@temp^0,w,c
  2236   000BF2  2625               	addwf	___flmul@prod^0,f,c
  2237   000BF4  502A               	movf	(___flmul@temp+1)^0,w,c
  2238   000BF6  2226               	addwfc	(___flmul@prod+1)^0,f,c
  2239   000BF8  0E00               	movlw	0
  2240   000BFA  2227               	addwfc	(___flmul@prod+2)^0,f,c
  2241   000BFC  0E00               	movlw	0
  2242   000BFE  2228               	addwfc	(___flmul@prod+3)^0,f,c
  2243   000C00  5017               	movf	(___flmul@a+1)^0,w,c
  2244   000C02  0214               	mulwf	(___flmul@b+2)^0,c
  2245   000C04  CFF3 F029          	movff	prodl,___flmul@temp
  2246   000C08  CFF4 F02A          	movff	prodh,___flmul@temp+1
  2247   000C0C  5029               	movf	___flmul@temp^0,w,c
  2248   000C0E  2625               	addwf	___flmul@prod^0,f,c
  2249   000C10  502A               	movf	(___flmul@temp+1)^0,w,c
  2250   000C12  2226               	addwfc	(___flmul@prod+1)^0,f,c
  2251   000C14  0E00               	movlw	0
  2252   000C16  2227               	addwfc	(___flmul@prod+2)^0,f,c
  2253   000C18  0E00               	movlw	0
  2254   000C1A  2228               	addwfc	(___flmul@prod+3)^0,f,c
  2255   000C1C  5018               	movf	(___flmul@a+2)^0,w,c
  2256   000C1E  0214               	mulwf	(___flmul@b+2)^0,c
  2257   000C20  CFF3 F029          	movff	prodl,___flmul@temp
  2258   000C24  CFF4 F02A          	movff	prodh,___flmul@temp+1
  2259   000C28  5029               	movf	___flmul@temp^0,w,c
  2260   000C2A  6E1A               	movwf	??___flmul^0,c
  2261   000C2C  502A               	movf	(___flmul@temp+1)^0,w,c
  2262   000C2E  6E1B               	movwf	(??___flmul+1)^0,c
  2263   000C30  6A1C               	clrf	(??___flmul+2)^0,c
  2264   000C32  6A1D               	clrf	(??___flmul+3)^0,c
  2265   000C34  C01C  F01D         	movff	??___flmul+2,??___flmul+3
  2266   000C38  C01B  F01C         	movff	??___flmul+1,??___flmul+2
  2267   000C3C  C01A  F01B         	movff	??___flmul,??___flmul+1
  2268   000C40  6A1A               	clrf	??___flmul^0,c
  2269   000C42  501A               	movf	??___flmul^0,w,c
  2270   000C44  2625               	addwf	___flmul@prod^0,f,c
  2271   000C46  501B               	movf	(??___flmul+1)^0,w,c
  2272   000C48  2226               	addwfc	(___flmul@prod+1)^0,f,c
  2273   000C4A  501C               	movf	(??___flmul+2)^0,w,c
  2274   000C4C  2227               	addwfc	(___flmul@prod+2)^0,f,c
  2275   000C4E  501D               	movf	(??___flmul+3)^0,w,c
  2276   000C50  2228               	addwfc	(___flmul@prod+3)^0,f,c
  2277   000C52  C01F  F01A         	movff	___flmul@grs,??___flmul
  2278   000C56  C020  F01B         	movff	___flmul@grs+1,??___flmul+1
  2279   000C5A  C021  F01C         	movff	___flmul@grs+2,??___flmul+2
  2280   000C5E  C022  F01D         	movff	___flmul@grs+3,??___flmul+3
  2281   000C62  0E19               	movlw	25
  2282   000C64  EF39  F006         	goto	u2150
  2283   000C68                     u2155:
  2284   000C68  90D8               	bcf	status,0,c
  2285   000C6A  321D               	rrcf	(??___flmul+3)^0,f,c
  2286   000C6C  321C               	rrcf	(??___flmul+2)^0,f,c
  2287   000C6E  321B               	rrcf	(??___flmul+1)^0,f,c
  2288   000C70  321A               	rrcf	??___flmul^0,f,c
  2289   000C72                     u2150:
  2290   000C72  2EE8               	decfsz	wreg,f,c
  2291   000C74  EF34  F006         	goto	u2155
  2292   000C78  501A               	movf	??___flmul^0,w,c
  2293   000C7A  2625               	addwf	___flmul@prod^0,f,c
  2294   000C7C  501B               	movf	(??___flmul+1)^0,w,c
  2295   000C7E  2226               	addwfc	(___flmul@prod+1)^0,f,c
  2296   000C80  501C               	movf	(??___flmul+2)^0,w,c
  2297   000C82  2227               	addwfc	(___flmul@prod+2)^0,f,c
  2298   000C84  501D               	movf	(??___flmul+3)^0,w,c
  2299   000C86  2228               	addwfc	(___flmul@prod+3)^0,f,c
  2300   000C88  C021  F022         	movff	___flmul@grs+2,___flmul@grs+3
  2301   000C8C  C020  F021         	movff	___flmul@grs+1,___flmul@grs+2
  2302   000C90  C01F  F020         	movff	___flmul@grs,___flmul@grs+1
  2303   000C94  6A1F               	clrf	___flmul@grs^0,c
  2304   000C96  5023               	movf	___flmul@aexp^0,w,c
  2305   000C98  C024  F01A         	movff	___flmul@bexp,??___flmul
  2306   000C9C  6A1B               	clrf	(??___flmul+1)^0,c
  2307   000C9E  261A               	addwf	??___flmul^0,f,c
  2308   000CA0  0E00               	movlw	0
  2309   000CA2  221B               	addwfc	(??___flmul+1)^0,f,c
  2310   000CA4  0E82               	movlw	130
  2311   000CA6  241A               	addwf	??___flmul^0,w,c
  2312   000CA8  6E29               	movwf	___flmul@temp^0,c
  2313   000CAA  0EFF               	movlw	255
  2314   000CAC  201B               	addwfc	(??___flmul+1)^0,w,c
  2315   000CAE  6E2A               	movwf	(___flmul@temp+1)^0,c
  2316   000CB0  EF6F  F006         	goto	l2164
  2317   000CB4                     l2158:
  2318   000CB4  90D8               	bcf	status,0,c
  2319   000CB6  3625               	rlcf	___flmul@prod^0,f,c
  2320   000CB8  3626               	rlcf	(___flmul@prod+1)^0,f,c
  2321   000CBA  3627               	rlcf	(___flmul@prod+2)^0,f,c
  2322   000CBC  3628               	rlcf	(___flmul@prod+3)^0,f,c
  2323   000CBE  AE22               	btfss	(___flmul@grs+3)^0,7,c
  2324   000CC0  EF64  F006         	goto	u2161
  2325   000CC4  EF66  F006         	goto	u2160
  2326   000CC8                     u2161:
  2327   000CC8  EF67  F006         	goto	l752
  2328   000CCC                     u2160:
  2329   000CCC  8025               	bsf	___flmul@prod^0,0,c
  2330   000CCE                     l752:
  2331   000CCE  90D8               	bcf	status,0,c
  2332   000CD0  361F               	rlcf	___flmul@grs^0,f,c
  2333   000CD2  3620               	rlcf	(___flmul@grs+1)^0,f,c
  2334   000CD4  3621               	rlcf	(___flmul@grs+2)^0,f,c
  2335   000CD6  3622               	rlcf	(___flmul@grs+3)^0,f,c
  2336   000CD8  0629               	decf	___flmul@temp^0,f,c
  2337   000CDA  A0D8               	btfss	status,0,c
  2338   000CDC  062A               	decf	(___flmul@temp+1)^0,f,c
  2339   000CDE                     l2164:
  2340   000CDE  AE27               	btfss	(___flmul@prod+2)^0,7,c
  2341   000CE0  EF74  F006         	goto	u2171
  2342   000CE4  EF76  F006         	goto	u2170
  2343   000CE8                     u2171:
  2344   000CE8  EF5A  F006         	goto	l2158
  2345   000CEC                     u2170:
  2346   000CEC  6A23               	clrf	___flmul@aexp^0,c
  2347   000CEE  AE22               	btfss	(___flmul@grs+3)^0,7,c
  2348   000CF0  EF7C  F006         	goto	u2181
  2349   000CF4  EF7E  F006         	goto	u2180
  2350   000CF8                     u2181:
  2351   000CF8  EFA2  F006         	goto	l754
  2352   000CFC                     u2180:
  2353   000CFC  0EFF               	movlw	255
  2354   000CFE  141F               	andwf	___flmul@grs^0,w,c
  2355   000D00  6E1A               	movwf	??___flmul^0,c
  2356   000D02  0EFF               	movlw	255
  2357   000D04  1420               	andwf	(___flmul@grs+1)^0,w,c
  2358   000D06  6E1B               	movwf	(??___flmul+1)^0,c
  2359   000D08  0EFF               	movlw	255
  2360   000D0A  1421               	andwf	(___flmul@grs+2)^0,w,c
  2361   000D0C  6E1C               	movwf	(??___flmul+2)^0,c
  2362   000D0E  0E7F               	movlw	127
  2363   000D10  1422               	andwf	(___flmul@grs+3)^0,w,c
  2364   000D12  6E1D               	movwf	(??___flmul+3)^0,c
  2365   000D14  501A               	movf	??___flmul^0,w,c
  2366   000D16  101B               	iorwf	(??___flmul+1)^0,w,c
  2367   000D18  101C               	iorwf	(??___flmul+2)^0,w,c
  2368   000D1A  101D               	iorwf	(??___flmul+3)^0,w,c
  2369   000D1C  B4D8               	btfsc	status,2,c
  2370   000D1E  EF93  F006         	goto	u2191
  2371   000D22  EF95  F006         	goto	u2190
  2372   000D26                     u2191:
  2373   000D26  EF99  F006         	goto	l755
  2374   000D2A                     u2190:
  2375   000D2A                     l2168:
  2376   000D2A  0E01               	movlw	1
  2377   000D2C  6E23               	movwf	___flmul@aexp^0,c
  2378   000D2E  EFA2  F006         	goto	l754
  2379   000D32                     l755:
  2380   000D32  A025               	btfss	___flmul@prod^0,0,c
  2381   000D34  EF9E  F006         	goto	u2201
  2382   000D38  EFA0  F006         	goto	u2200
  2383   000D3C                     u2201:
  2384   000D3C  EFA2  F006         	goto	l754
  2385   000D40                     u2200:
  2386   000D40  EF95  F006         	goto	l2168
  2387   000D44                     l754:
  2388   000D44  5023               	movf	___flmul@aexp^0,w,c
  2389   000D46  B4D8               	btfsc	status,2,c
  2390   000D48  EFA8  F006         	goto	u2211
  2391   000D4C  EFAA  F006         	goto	u2210
  2392   000D50                     u2211:
  2393   000D50  EFCE  F006         	goto	l2180
  2394   000D54                     u2210:
  2395   000D54  0E01               	movlw	1
  2396   000D56  2625               	addwf	___flmul@prod^0,f,c
  2397   000D58  0E00               	movlw	0
  2398   000D5A  2226               	addwfc	(___flmul@prod+1)^0,f,c
  2399   000D5C  2227               	addwfc	(___flmul@prod+2)^0,f,c
  2400   000D5E  2228               	addwfc	(___flmul@prod+3)^0,f,c
  2401   000D60  A028               	btfss	(___flmul@prod+3)^0,0,c
  2402   000D62  EFB5  F006         	goto	u2221
  2403   000D66  EFB7  F006         	goto	u2220
  2404   000D6A                     u2221:
  2405   000D6A  EFCE  F006         	goto	l2180
  2406   000D6E                     u2220:
  2407   000D6E  C025  F01A         	movff	___flmul@prod,??___flmul
  2408   000D72  C026  F01B         	movff	___flmul@prod+1,??___flmul+1
  2409   000D76  C027  F01C         	movff	___flmul@prod+2,??___flmul+2
  2410   000D7A  C028  F01D         	movff	___flmul@prod+3,??___flmul+3
  2411   000D7E  341D               	rlcf	(??___flmul+3)^0,w,c
  2412   000D80  321D               	rrcf	(??___flmul+3)^0,f,c
  2413   000D82  321C               	rrcf	(??___flmul+2)^0,f,c
  2414   000D84  321B               	rrcf	(??___flmul+1)^0,f,c
  2415   000D86  321A               	rrcf	??___flmul^0,f,c
  2416   000D88  C01A  F025         	movff	??___flmul,___flmul@prod
  2417   000D8C  C01B  F026         	movff	??___flmul+1,___flmul@prod+1
  2418   000D90  C01C  F027         	movff	??___flmul+2,___flmul@prod+2
  2419   000D94  C01D  F028         	movff	??___flmul+3,___flmul@prod+3
  2420   000D98  4A29               	infsnz	___flmul@temp^0,f,c
  2421   000D9A  2A2A               	incf	(___flmul@temp+1)^0,f,c
  2422   000D9C                     l2180:
  2423   000D9C  BE2A               	btfsc	(___flmul@temp+1)^0,7,c
  2424   000D9E  EFD9  F006         	goto	u2231
  2425   000DA2  502A               	movf	(___flmul@temp+1)^0,w,c
  2426   000DA4  E108               	bnz	u2230
  2427   000DA6  2829               	incf	___flmul@temp^0,w,c
  2428   000DA8  A0D8               	btfss	status,0,c
  2429   000DAA  EFD9  F006         	goto	u2231
  2430   000DAE  EFDB  F006         	goto	u2230
  2431   000DB2                     u2231:
  2432   000DB2  EFE5  F006         	goto	l2184
  2433   000DB6                     u2230:
  2434   000DB6  0E00               	movlw	0
  2435   000DB8  6E25               	movwf	___flmul@prod^0,c
  2436   000DBA  0E00               	movlw	0
  2437   000DBC  6E26               	movwf	(___flmul@prod+1)^0,c
  2438   000DBE  0E80               	movlw	128
  2439   000DC0  6E27               	movwf	(___flmul@prod+2)^0,c
  2440   000DC2  0E7F               	movlw	127
  2441   000DC4  6E28               	movwf	(___flmul@prod+3)^0,c
  2442   000DC6  EF12  F007         	goto	l2198
  2443   000DCA                     l2184:
  2444   000DCA  BE2A               	btfsc	(___flmul@temp+1)^0,7,c
  2445   000DCC  EFF2  F006         	goto	u2240
  2446   000DD0  502A               	movf	(___flmul@temp+1)^0,w,c
  2447   000DD2  E106               	bnz	u2241
  2448   000DD4  0429               	decf	___flmul@temp^0,w,c
  2449   000DD6  B0D8               	btfsc	status,0,c
  2450   000DD8  EFF0  F006         	goto	u2241
  2451   000DDC  EFF2  F006         	goto	u2240
  2452   000DE0                     u2241:
  2453   000DE0  EFFD  F006         	goto	l762
  2454   000DE4                     u2240:
  2455   000DE4  0E00               	movlw	0
  2456   000DE6  6E25               	movwf	___flmul@prod^0,c
  2457   000DE8  0E00               	movlw	0
  2458   000DEA  6E26               	movwf	(___flmul@prod+1)^0,c
  2459   000DEC  0E00               	movlw	0
  2460   000DEE  6E27               	movwf	(___flmul@prod+2)^0,c
  2461   000DF0  0E00               	movlw	0
  2462   000DF2  6E28               	movwf	(___flmul@prod+3)^0,c
  2463   000DF4  6A1E               	clrf	___flmul@sign^0,c
  2464   000DF6  EF12  F007         	goto	l2198
  2465   000DFA                     l762:
  2466   000DFA  C029  F024         	movff	___flmul@temp,___flmul@bexp
  2467   000DFE  0EFF               	movlw	255
  2468   000E00  1625               	andwf	___flmul@prod^0,f,c
  2469   000E02  0EFF               	movlw	255
  2470   000E04  1626               	andwf	(___flmul@prod+1)^0,f,c
  2471   000E06  0E7F               	movlw	127
  2472   000E08  1627               	andwf	(___flmul@prod+2)^0,f,c
  2473   000E0A  0E00               	movlw	0
  2474   000E0C  1628               	andwf	(___flmul@prod+3)^0,f,c
  2475   000E0E  A024               	btfss	___flmul@bexp^0,0,c
  2476   000E10  EF0C  F007         	goto	u2251
  2477   000E14  EF0E  F007         	goto	u2250
  2478   000E18                     u2251:
  2479   000E18  EF0F  F007         	goto	l2196
  2480   000E1C                     u2250:
  2481   000E1C  8E27               	bsf	(___flmul@prod+2)^0,7,c
  2482   000E1E                     l2196:
  2483   000E1E  90D8               	bcf	status,0,c
  2484   000E20  3024               	rrcf	___flmul@bexp^0,w,c
  2485   000E22  6E28               	movwf	(___flmul@prod+3)^0,c
  2486   000E24                     l2198:
  2487   000E24  501E               	movf	___flmul@sign^0,w,c
  2488   000E26  1228               	iorwf	(___flmul@prod+3)^0,f,c
  2489   000E28  C025  F012         	movff	___flmul@prod,?___flmul
  2490   000E2C  C026  F013         	movff	___flmul@prod+1,?___flmul+1
  2491   000E30  C027  F014         	movff	___flmul@prod+2,?___flmul+2
  2492   000E34  C028  F015         	movff	___flmul@prod+3,?___flmul+3
  2493   000E38                     l749:
  2494   000E38  0012               	return		;funcret
  2495   000E3A                     __end_of___flmul:
  2496                           	callstack 0
  2497                           
  2498 ;; *************** function ___fldiv *****************
  2499 ;; Defined at:
  2500 ;;		line 11 in file "C:\Program Files\Microchip\xc8\v3.00\pic\sources\c99\common\sprcdiv.c"
  2501 ;; Parameters:    Size  Location     Type
  2502 ;;  b               4   17[COMRAM] unsigned char 
  2503 ;;  a               4   21[COMRAM] unsigned char 
  2504 ;; Auto vars:     Size  Location     Type
  2505 ;;  grs             4   36[COMRAM] unsigned long 
  2506 ;;  rem             4   29[COMRAM] unsigned long 
  2507 ;;  new_exp         2   34[COMRAM] short 
  2508 ;;  aexp            1   41[COMRAM] unsigned char 
  2509 ;;  bexp            1   40[COMRAM] unsigned char 
  2510 ;;  sign            1   33[COMRAM] unsigned char 
  2511 ;; Return value:  Size  Location     Type
  2512 ;;                  4   17[COMRAM] unsigned char 
  2513 ;; Registers used:
  2514 ;;		wreg, status,2, status,0
  2515 ;; Tracked objects:
  2516 ;;		On entry : 0/0
  2517 ;;		On exit  : 0/0
  2518 ;;		Unchanged: 0/0
  2519 ;; Data sizes:     COMRAM   BANK0
  2520 ;;      Params:         8       0
  2521 ;;      Locals:        13       0
  2522 ;;      Temps:          4       0
  2523 ;;      Totals:        25       0
  2524 ;;Total ram usage:       25 bytes
  2525 ;; Hardware stack levels used: 1
  2526 ;; Hardware stack levels required when called: 1
  2527 ;; This function calls:
  2528 ;;		Nothing
  2529 ;; This function is called by:
  2530 ;;		_main
  2531 ;; This function uses a non-reentrant model
  2532 ;;
  2533                           
  2534                           	psect	text5
  2535   000E3A                     __ptext5:
  2536                           	callstack 0
  2537   000E3A                     ___fldiv:
  2538                           	callstack 29
  2539   000E3A  5015               	movf	(___fldiv@b+3)^0,w,c
  2540   000E3C  0B80               	andlw	128
  2541   000E3E  6E22               	movwf	___fldiv@sign^0,c
  2542   000E40  5015               	movf	(___fldiv@b+3)^0,w,c
  2543   000E42  2415               	addwf	(___fldiv@b+3)^0,w,c
  2544   000E44  6E29               	movwf	___fldiv@bexp^0,c
  2545   000E46  AE14               	btfss	(___fldiv@b+2)^0,7,c
  2546   000E48  EF28  F007         	goto	u1841
  2547   000E4C  EF2A  F007         	goto	u1840
  2548   000E50                     u1841:
  2549   000E50  EF2B  F007         	goto	l1946
  2550   000E54                     u1840:
  2551   000E54  8029               	bsf	___fldiv@bexp^0,0,c
  2552   000E56                     l1946:
  2553   000E56  5029               	movf	___fldiv@bexp^0,w,c
  2554   000E58  B4D8               	btfsc	status,2,c
  2555   000E5A  EF31  F007         	goto	u1851
  2556   000E5E  EF33  F007         	goto	u1850
  2557   000E62                     u1851:
  2558   000E62  EF47  F007         	goto	l1956
  2559   000E66                     u1850:
  2560   000E66  2829               	incf	___fldiv@bexp^0,w,c
  2561   000E68  A4D8               	btfss	status,2,c
  2562   000E6A  EF39  F007         	goto	u1861
  2563   000E6E  EF3B  F007         	goto	u1860
  2564   000E72                     u1861:
  2565   000E72  EF43  F007         	goto	l1952
  2566   000E76                     u1860:
  2567   000E76  0E00               	movlw	0
  2568   000E78  6E12               	movwf	___fldiv@b^0,c
  2569   000E7A  0E00               	movlw	0
  2570   000E7C  6E13               	movwf	(___fldiv@b+1)^0,c
  2571   000E7E  0E00               	movlw	0
  2572   000E80  6E14               	movwf	(___fldiv@b+2)^0,c
  2573   000E82  0E00               	movlw	0
  2574   000E84  6E15               	movwf	(___fldiv@b+3)^0,c
  2575   000E86                     l1952:
  2576   000E86  8E14               	bsf	(___fldiv@b+2)^0,7,c
  2577   000E88  6A15               	clrf	(___fldiv@b+3)^0,c
  2578   000E8A  EF4F  F007         	goto	l1958
  2579   000E8E                     l1956:
  2580   000E8E  0E00               	movlw	0
  2581   000E90  6E12               	movwf	___fldiv@b^0,c
  2582   000E92  0E00               	movlw	0
  2583   000E94  6E13               	movwf	(___fldiv@b+1)^0,c
  2584   000E96  0E00               	movlw	0
  2585   000E98  6E14               	movwf	(___fldiv@b+2)^0,c
  2586   000E9A  0E00               	movlw	0
  2587   000E9C  6E15               	movwf	(___fldiv@b+3)^0,c
  2588   000E9E                     l1958:
  2589   000E9E  5019               	movf	(___fldiv@a+3)^0,w,c
  2590   000EA0  0B80               	andlw	128
  2591   000EA2  1A22               	xorwf	___fldiv@sign^0,f,c
  2592   000EA4  5019               	movf	(___fldiv@a+3)^0,w,c
  2593   000EA6  2419               	addwf	(___fldiv@a+3)^0,w,c
  2594   000EA8  6E2A               	movwf	___fldiv@aexp^0,c
  2595   000EAA  AE18               	btfss	(___fldiv@a+2)^0,7,c
  2596   000EAC  EF5A  F007         	goto	u1871
  2597   000EB0  EF5C  F007         	goto	u1870
  2598   000EB4                     u1871:
  2599   000EB4  EF5D  F007         	goto	l1966
  2600   000EB8                     u1870:
  2601   000EB8  802A               	bsf	___fldiv@aexp^0,0,c
  2602   000EBA                     l1966:
  2603   000EBA  502A               	movf	___fldiv@aexp^0,w,c
  2604   000EBC  B4D8               	btfsc	status,2,c
  2605   000EBE  EF63  F007         	goto	u1881
  2606   000EC2  EF65  F007         	goto	u1880
  2607   000EC6                     u1881:
  2608   000EC6  EF79  F007         	goto	l1976
  2609   000ECA                     u1880:
  2610   000ECA  282A               	incf	___fldiv@aexp^0,w,c
  2611   000ECC  A4D8               	btfss	status,2,c
  2612   000ECE  EF6B  F007         	goto	u1891
  2613   000ED2  EF6D  F007         	goto	u1890
  2614   000ED6                     u1891:
  2615   000ED6  EF75  F007         	goto	l1972
  2616   000EDA                     u1890:
  2617   000EDA  0E00               	movlw	0
  2618   000EDC  6E16               	movwf	___fldiv@a^0,c
  2619   000EDE  0E00               	movlw	0
  2620   000EE0  6E17               	movwf	(___fldiv@a+1)^0,c
  2621   000EE2  0E00               	movlw	0
  2622   000EE4  6E18               	movwf	(___fldiv@a+2)^0,c
  2623   000EE6  0E00               	movlw	0
  2624   000EE8  6E19               	movwf	(___fldiv@a+3)^0,c
  2625   000EEA                     l1972:
  2626   000EEA  8E18               	bsf	(___fldiv@a+2)^0,7,c
  2627   000EEC  6A19               	clrf	(___fldiv@a+3)^0,c
  2628   000EEE  EF81  F007         	goto	l1978
  2629   000EF2                     l1976:
  2630   000EF2  0E00               	movlw	0
  2631   000EF4  6E16               	movwf	___fldiv@a^0,c
  2632   000EF6  0E00               	movlw	0
  2633   000EF8  6E17               	movwf	(___fldiv@a+1)^0,c
  2634   000EFA  0E00               	movlw	0
  2635   000EFC  6E18               	movwf	(___fldiv@a+2)^0,c
  2636   000EFE  0E00               	movlw	0
  2637   000F00  6E19               	movwf	(___fldiv@a+3)^0,c
  2638   000F02                     l1978:
  2639   000F02  5016               	movf	___fldiv@a^0,w,c
  2640   000F04  1017               	iorwf	(___fldiv@a+1)^0,w,c
  2641   000F06  1018               	iorwf	(___fldiv@a+2)^0,w,c
  2642   000F08  1019               	iorwf	(___fldiv@a+3)^0,w,c
  2643   000F0A  A4D8               	btfss	status,2,c
  2644   000F0C  EF8A  F007         	goto	u1901
  2645   000F10  EF8C  F007         	goto	u1900
  2646   000F14                     u1901:
  2647   000F14  EFA4  F007         	goto	l1990
  2648   000F18                     u1900:
  2649   000F18  0E00               	movlw	0
  2650   000F1A  6E12               	movwf	___fldiv@b^0,c
  2651   000F1C  0E00               	movlw	0
  2652   000F1E  6E13               	movwf	(___fldiv@b+1)^0,c
  2653   000F20  0E00               	movlw	0
  2654   000F22  6E14               	movwf	(___fldiv@b+2)^0,c
  2655   000F24  0E00               	movlw	0
  2656   000F26  6E15               	movwf	(___fldiv@b+3)^0,c
  2657   000F28  0E80               	movlw	128
  2658   000F2A  1214               	iorwf	(___fldiv@b+2)^0,f,c
  2659   000F2C  0E7F               	movlw	127
  2660   000F2E  1215               	iorwf	(___fldiv@b+3)^0,f,c
  2661   000F30                     l1984:
  2662   000F30  5022               	movf	___fldiv@sign^0,w,c
  2663   000F32  1215               	iorwf	(___fldiv@b+3)^0,f,c
  2664   000F34  C012  F012         	movff	___fldiv@b,?___fldiv
  2665   000F38  C013  F013         	movff	___fldiv@b+1,?___fldiv+1
  2666   000F3C  C014  F014         	movff	___fldiv@b+2,?___fldiv+2
  2667   000F40  C015  F015         	movff	___fldiv@b+3,?___fldiv+3
  2668   000F44  EFE4  F008         	goto	l713
  2669   000F48                     l1990:
  2670   000F48  5029               	movf	___fldiv@bexp^0,w,c
  2671   000F4A  A4D8               	btfss	status,2,c
  2672   000F4C  EFAA  F007         	goto	u1911
  2673   000F50  EFAC  F007         	goto	u1910
  2674   000F54                     u1911:
  2675   000F54  EFB6  F007         	goto	l1998
  2676   000F58                     u1910:
  2677   000F58  0E00               	movlw	0
  2678   000F5A  6E12               	movwf	?___fldiv^0,c
  2679   000F5C  0E00               	movlw	0
  2680   000F5E  6E13               	movwf	(?___fldiv+1)^0,c
  2681   000F60  0E00               	movlw	0
  2682   000F62  6E14               	movwf	(?___fldiv+2)^0,c
  2683   000F64  0E00               	movlw	0
  2684   000F66  6E15               	movwf	(?___fldiv+3)^0,c
  2685   000F68  EFE4  F008         	goto	l713
  2686   000F6C                     l1998:
  2687   000F6C  502A               	movf	___fldiv@aexp^0,w,c
  2688   000F6E  C029  F01A         	movff	___fldiv@bexp,??___fldiv
  2689   000F72  6A1B               	clrf	(??___fldiv+1)^0,c
  2690   000F74  5E1A               	subwf	??___fldiv^0,f,c
  2691   000F76  0E00               	movlw	0
  2692   000F78  5A1B               	subwfb	(??___fldiv+1)^0,f,c
  2693   000F7A  0E7F               	movlw	127
  2694   000F7C  241A               	addwf	??___fldiv^0,w,c
  2695   000F7E  6E23               	movwf	___fldiv@new_exp^0,c
  2696   000F80  0E00               	movlw	0
  2697   000F82  201B               	addwfc	(??___fldiv+1)^0,w,c
  2698   000F84  6E24               	movwf	(___fldiv@new_exp+1)^0,c
  2699   000F86  C012  F01E         	movff	___fldiv@b,___fldiv@rem
  2700   000F8A  C013  F01F         	movff	___fldiv@b+1,___fldiv@rem+1
  2701   000F8E  C014  F020         	movff	___fldiv@b+2,___fldiv@rem+2
  2702   000F92  C015  F021         	movff	___fldiv@b+3,___fldiv@rem+3
  2703   000F96  0E00               	movlw	0
  2704   000F98  6E12               	movwf	___fldiv@b^0,c
  2705   000F9A  0E00               	movlw	0
  2706   000F9C  6E13               	movwf	(___fldiv@b+1)^0,c
  2707   000F9E  0E00               	movlw	0
  2708   000FA0  6E14               	movwf	(___fldiv@b+2)^0,c
  2709   000FA2  0E00               	movlw	0
  2710   000FA4  6E15               	movwf	(___fldiv@b+3)^0,c
  2711   000FA6  0E00               	movlw	0
  2712   000FA8  6E25               	movwf	___fldiv@grs^0,c
  2713   000FAA  0E00               	movlw	0
  2714   000FAC  6E26               	movwf	(___fldiv@grs+1)^0,c
  2715   000FAE  0E00               	movlw	0
  2716   000FB0  6E27               	movwf	(___fldiv@grs+2)^0,c
  2717   000FB2  0E00               	movlw	0
  2718   000FB4  6E28               	movwf	(___fldiv@grs+3)^0,c
  2719   000FB6  6A2A               	clrf	___fldiv@aexp^0,c
  2720   000FB8  EF16  F008         	goto	l715
  2721   000FBC                     l2008:
  2722   000FBC  502A               	movf	___fldiv@aexp^0,w,c
  2723   000FBE  B4D8               	btfsc	status,2,c
  2724   000FC0  EFE4  F007         	goto	u1921
  2725   000FC4  EFE6  F007         	goto	u1920
  2726   000FC8                     u1921:
  2727   000FC8  EFFD  F007         	goto	l2016
  2728   000FCC                     u1920:
  2729   000FCC  90D8               	bcf	status,0,c
  2730   000FCE  361E               	rlcf	___fldiv@rem^0,f,c
  2731   000FD0  361F               	rlcf	(___fldiv@rem+1)^0,f,c
  2732   000FD2  3620               	rlcf	(___fldiv@rem+2)^0,f,c
  2733   000FD4  3621               	rlcf	(___fldiv@rem+3)^0,f,c
  2734   000FD6  90D8               	bcf	status,0,c
  2735   000FD8  3612               	rlcf	___fldiv@b^0,f,c
  2736   000FDA  3613               	rlcf	(___fldiv@b+1)^0,f,c
  2737   000FDC  3614               	rlcf	(___fldiv@b+2)^0,f,c
  2738   000FDE  3615               	rlcf	(___fldiv@b+3)^0,f,c
  2739   000FE0  AE28               	btfss	(___fldiv@grs+3)^0,7,c
  2740   000FE2  EFF5  F007         	goto	u1931
  2741   000FE6  EFF7  F007         	goto	u1930
  2742   000FEA                     u1931:
  2743   000FEA  EFF8  F007         	goto	l718
  2744   000FEE                     u1930:
  2745   000FEE  8012               	bsf	___fldiv@b^0,0,c
  2746   000FF0                     l718:
  2747   000FF0  90D8               	bcf	status,0,c
  2748   000FF2  3625               	rlcf	___fldiv@grs^0,f,c
  2749   000FF4  3626               	rlcf	(___fldiv@grs+1)^0,f,c
  2750   000FF6  3627               	rlcf	(___fldiv@grs+2)^0,f,c
  2751   000FF8  3628               	rlcf	(___fldiv@grs+3)^0,f,c
  2752   000FFA                     l2016:
  2753   000FFA  5016               	movf	___fldiv@a^0,w,c
  2754   000FFC  5C1E               	subwf	___fldiv@rem^0,w,c
  2755   000FFE  5017               	movf	(___fldiv@a+1)^0,w,c
  2756   001000  581F               	subwfb	(___fldiv@rem+1)^0,w,c
  2757   001002  5018               	movf	(___fldiv@a+2)^0,w,c
  2758   001004  5820               	subwfb	(___fldiv@rem+2)^0,w,c
  2759   001006  5019               	movf	(___fldiv@a+3)^0,w,c
  2760   001008  5821               	subwfb	(___fldiv@rem+3)^0,w,c
  2761   00100A  A0D8               	btfss	status,0,c
  2762   00100C  EF0A  F008         	goto	u1941
  2763   001010  EF0C  F008         	goto	u1940
  2764   001014                     u1941:
  2765   001014  EF15  F008         	goto	l2022
  2766   001018                     u1940:
  2767   001018  8C28               	bsf	(___fldiv@grs+3)^0,6,c
  2768   00101A  5016               	movf	___fldiv@a^0,w,c
  2769   00101C  5E1E               	subwf	___fldiv@rem^0,f,c
  2770   00101E  5017               	movf	(___fldiv@a+1)^0,w,c
  2771   001020  5A1F               	subwfb	(___fldiv@rem+1)^0,f,c
  2772   001022  5018               	movf	(___fldiv@a+2)^0,w,c
  2773   001024  5A20               	subwfb	(___fldiv@rem+2)^0,f,c
  2774   001026  5019               	movf	(___fldiv@a+3)^0,w,c
  2775   001028  5A21               	subwfb	(___fldiv@rem+3)^0,f,c
  2776   00102A                     l2022:
  2777   00102A  2A2A               	incf	___fldiv@aexp^0,f,c
  2778   00102C                     l715:
  2779   00102C  0E19               	movlw	25
  2780   00102E  642A               	cpfsgt	___fldiv@aexp^0,c
  2781   001030  EF1C  F008         	goto	u1951
  2782   001034  EF1E  F008         	goto	u1950
  2783   001038                     u1951:
  2784   001038  EFDE  F007         	goto	l2008
  2785   00103C                     u1950:
  2786   00103C  501E               	movf	___fldiv@rem^0,w,c
  2787   00103E  101F               	iorwf	(___fldiv@rem+1)^0,w,c
  2788   001040  1020               	iorwf	(___fldiv@rem+2)^0,w,c
  2789   001042  1021               	iorwf	(___fldiv@rem+3)^0,w,c
  2790   001044  B4D8               	btfsc	status,2,c
  2791   001046  EF27  F008         	goto	u1961
  2792   00104A  EF29  F008         	goto	u1960
  2793   00104E                     u1961:
  2794   00104E  EF41  F008         	goto	l2034
  2795   001052                     u1960:
  2796   001052  8025               	bsf	___fldiv@grs^0,0,c
  2797   001054  EF41  F008         	goto	l2034
  2798   001058                     l2028:
  2799   001058  90D8               	bcf	status,0,c
  2800   00105A  3612               	rlcf	___fldiv@b^0,f,c
  2801   00105C  3613               	rlcf	(___fldiv@b+1)^0,f,c
  2802   00105E  3614               	rlcf	(___fldiv@b+2)^0,f,c
  2803   001060  3615               	rlcf	(___fldiv@b+3)^0,f,c
  2804   001062  AE28               	btfss	(___fldiv@grs+3)^0,7,c
  2805   001064  EF36  F008         	goto	u1971
  2806   001068  EF38  F008         	goto	u1970
  2807   00106C                     u1971:
  2808   00106C  EF39  F008         	goto	l724
  2809   001070                     u1970:
  2810   001070  8012               	bsf	___fldiv@b^0,0,c
  2811   001072                     l724:
  2812   001072  90D8               	bcf	status,0,c
  2813   001074  3625               	rlcf	___fldiv@grs^0,f,c
  2814   001076  3626               	rlcf	(___fldiv@grs+1)^0,f,c
  2815   001078  3627               	rlcf	(___fldiv@grs+2)^0,f,c
  2816   00107A  3628               	rlcf	(___fldiv@grs+3)^0,f,c
  2817   00107C  0623               	decf	___fldiv@new_exp^0,f,c
  2818   00107E  A0D8               	btfss	status,0,c
  2819   001080  0624               	decf	(___fldiv@new_exp+1)^0,f,c
  2820   001082                     l2034:
  2821   001082  AE14               	btfss	(___fldiv@b+2)^0,7,c
  2822   001084  EF46  F008         	goto	u1981
  2823   001088  EF48  F008         	goto	u1980
  2824   00108C                     u1981:
  2825   00108C  EF2C  F008         	goto	l2028
  2826   001090                     u1980:
  2827   001090  6A2A               	clrf	___fldiv@aexp^0,c
  2828   001092  AE28               	btfss	(___fldiv@grs+3)^0,7,c
  2829   001094  EF4E  F008         	goto	u1991
  2830   001098  EF50  F008         	goto	u1990
  2831   00109C                     u1991:
  2832   00109C  EF74  F008         	goto	l726
  2833   0010A0                     u1990:
  2834   0010A0  0EFF               	movlw	255
  2835   0010A2  1425               	andwf	___fldiv@grs^0,w,c
  2836   0010A4  6E1A               	movwf	??___fldiv^0,c
  2837   0010A6  0EFF               	movlw	255
  2838   0010A8  1426               	andwf	(___fldiv@grs+1)^0,w,c
  2839   0010AA  6E1B               	movwf	(??___fldiv+1)^0,c
  2840   0010AC  0EFF               	movlw	255
  2841   0010AE  1427               	andwf	(___fldiv@grs+2)^0,w,c
  2842   0010B0  6E1C               	movwf	(??___fldiv+2)^0,c
  2843   0010B2  0E7F               	movlw	127
  2844   0010B4  1428               	andwf	(___fldiv@grs+3)^0,w,c
  2845   0010B6  6E1D               	movwf	(??___fldiv+3)^0,c
  2846   0010B8  501A               	movf	??___fldiv^0,w,c
  2847   0010BA  101B               	iorwf	(??___fldiv+1)^0,w,c
  2848   0010BC  101C               	iorwf	(??___fldiv+2)^0,w,c
  2849   0010BE  101D               	iorwf	(??___fldiv+3)^0,w,c
  2850   0010C0  B4D8               	btfsc	status,2,c
  2851   0010C2  EF65  F008         	goto	u2001
  2852   0010C6  EF67  F008         	goto	u2000
  2853   0010CA                     u2001:
  2854   0010CA  EF6B  F008         	goto	l727
  2855   0010CE                     u2000:
  2856   0010CE                     l2038:
  2857   0010CE  0E01               	movlw	1
  2858   0010D0  6E2A               	movwf	___fldiv@aexp^0,c
  2859   0010D2  EF74  F008         	goto	l726
  2860   0010D6                     l727:
  2861   0010D6  A012               	btfss	___fldiv@b^0,0,c
  2862   0010D8  EF70  F008         	goto	u2011
  2863   0010DC  EF72  F008         	goto	u2010
  2864   0010E0                     u2011:
  2865   0010E0  EF74  F008         	goto	l726
  2866   0010E4                     u2010:
  2867   0010E4  EF67  F008         	goto	l2038
  2868   0010E8                     l726:
  2869   0010E8  502A               	movf	___fldiv@aexp^0,w,c
  2870   0010EA  B4D8               	btfsc	status,2,c
  2871   0010EC  EF7A  F008         	goto	u2021
  2872   0010F0  EF7C  F008         	goto	u2020
  2873   0010F4                     u2021:
  2874   0010F4  EFA0  F008         	goto	l2050
  2875   0010F8                     u2020:
  2876   0010F8  0E01               	movlw	1
  2877   0010FA  2612               	addwf	___fldiv@b^0,f,c
  2878   0010FC  0E00               	movlw	0
  2879   0010FE  2213               	addwfc	(___fldiv@b+1)^0,f,c
  2880   001100  2214               	addwfc	(___fldiv@b+2)^0,f,c
  2881   001102  2215               	addwfc	(___fldiv@b+3)^0,f,c
  2882   001104  A015               	btfss	(___fldiv@b+3)^0,0,c
  2883   001106  EF87  F008         	goto	u2031
  2884   00110A  EF89  F008         	goto	u2030
  2885   00110E                     u2031:
  2886   00110E  EFA0  F008         	goto	l2050
  2887   001112                     u2030:
  2888   001112  C012  F01A         	movff	___fldiv@b,??___fldiv
  2889   001116  C013  F01B         	movff	___fldiv@b+1,??___fldiv+1
  2890   00111A  C014  F01C         	movff	___fldiv@b+2,??___fldiv+2
  2891   00111E  C015  F01D         	movff	___fldiv@b+3,??___fldiv+3
  2892   001122  341D               	rlcf	(??___fldiv+3)^0,w,c
  2893   001124  321D               	rrcf	(??___fldiv+3)^0,f,c
  2894   001126  321C               	rrcf	(??___fldiv+2)^0,f,c
  2895   001128  321B               	rrcf	(??___fldiv+1)^0,f,c
  2896   00112A  321A               	rrcf	??___fldiv^0,f,c
  2897   00112C  C01A  F012         	movff	??___fldiv,___fldiv@b
  2898   001130  C01B  F013         	movff	??___fldiv+1,___fldiv@b+1
  2899   001134  C01C  F014         	movff	??___fldiv+2,___fldiv@b+2
  2900   001138  C01D  F015         	movff	??___fldiv+3,___fldiv@b+3
  2901   00113C  4A23               	infsnz	___fldiv@new_exp^0,f,c
  2902   00113E  2A24               	incf	(___fldiv@new_exp+1)^0,f,c
  2903   001140                     l2050:
  2904   001140  BE24               	btfsc	(___fldiv@new_exp+1)^0,7,c
  2905   001142  EFAB  F008         	goto	u2041
  2906   001146  5024               	movf	(___fldiv@new_exp+1)^0,w,c
  2907   001148  E108               	bnz	u2040
  2908   00114A  2823               	incf	___fldiv@new_exp^0,w,c
  2909   00114C  A0D8               	btfss	status,0,c
  2910   00114E  EFAB  F008         	goto	u2041
  2911   001152  EFAD  F008         	goto	u2040
  2912   001156                     u2041:
  2913   001156  EFB8  F008         	goto	l2054
  2914   00115A                     u2040:
  2915   00115A  0E00               	movlw	0
  2916   00115C  6E24               	movwf	(___fldiv@new_exp+1)^0,c
  2917   00115E  6823               	setf	___fldiv@new_exp^0,c
  2918   001160  0E00               	movlw	0
  2919   001162  6E12               	movwf	___fldiv@b^0,c
  2920   001164  0E00               	movlw	0
  2921   001166  6E13               	movwf	(___fldiv@b+1)^0,c
  2922   001168  0E00               	movlw	0
  2923   00116A  6E14               	movwf	(___fldiv@b+2)^0,c
  2924   00116C  0E00               	movlw	0
  2925   00116E  6E15               	movwf	(___fldiv@b+3)^0,c
  2926   001170                     l2054:
  2927   001170  BE24               	btfsc	(___fldiv@new_exp+1)^0,7,c
  2928   001172  EFC5  F008         	goto	u2050
  2929   001176  5024               	movf	(___fldiv@new_exp+1)^0,w,c
  2930   001178  E106               	bnz	u2051
  2931   00117A  0423               	decf	___fldiv@new_exp^0,w,c
  2932   00117C  B0D8               	btfsc	status,0,c
  2933   00117E  EFC3  F008         	goto	u2051
  2934   001182  EFC5  F008         	goto	u2050
  2935   001186                     u2051:
  2936   001186  EFD2  F008         	goto	l2060
  2937   00118A                     u2050:
  2938   00118A  0E00               	movlw	0
  2939   00118C  6E24               	movwf	(___fldiv@new_exp+1)^0,c
  2940   00118E  0E00               	movlw	0
  2941   001190  6E23               	movwf	___fldiv@new_exp^0,c
  2942   001192  0E00               	movlw	0
  2943   001194  6E12               	movwf	___fldiv@b^0,c
  2944   001196  0E00               	movlw	0
  2945   001198  6E13               	movwf	(___fldiv@b+1)^0,c
  2946   00119A  0E00               	movlw	0
  2947   00119C  6E14               	movwf	(___fldiv@b+2)^0,c
  2948   00119E  0E00               	movlw	0
  2949   0011A0  6E15               	movwf	(___fldiv@b+3)^0,c
  2950   0011A2  6A22               	clrf	___fldiv@sign^0,c
  2951   0011A4                     l2060:
  2952   0011A4  C023  F029         	movff	___fldiv@new_exp,___fldiv@bexp
  2953   0011A8  A029               	btfss	___fldiv@bexp^0,0,c
  2954   0011AA  EFD9  F008         	goto	u2061
  2955   0011AE  EFDB  F008         	goto	u2060
  2956   0011B2                     u2061:
  2957   0011B2  EFDE  F008         	goto	l2066
  2958   0011B6                     u2060:
  2959   0011B6  8E14               	bsf	(___fldiv@b+2)^0,7,c
  2960   0011B8  EFDF  F008         	goto	l2068
  2961   0011BC                     l2066:
  2962   0011BC  9E14               	bcf	(___fldiv@b+2)^0,7,c
  2963   0011BE                     l2068:
  2964   0011BE  90D8               	bcf	status,0,c
  2965   0011C0  3029               	rrcf	___fldiv@bexp^0,w,c
  2966   0011C2  6E15               	movwf	(___fldiv@b+3)^0,c
  2967   0011C4  EF98  F007         	goto	l1984
  2968   0011C8                     l713:
  2969   0011C8  0012               	return		;funcret
  2970   0011CA                     __end_of___fldiv:
  2971                           	callstack 0
  2972                           
  2973 ;; *************** function ___fladd *****************
  2974 ;; Defined at:
  2975 ;;		line 10 in file "C:\Program Files\Microchip\xc8\v3.00\pic\sources\c99\common\sprcadd.c"
  2976 ;; Parameters:    Size  Location     Type
  2977 ;;  b               4   42[COMRAM] unsigned char 
  2978 ;;  a               4   46[COMRAM] unsigned char 
  2979 ;; Auto vars:     Size  Location     Type
  2980 ;;  grs             1   57[COMRAM] unsigned char 
  2981 ;;  bexp            1   56[COMRAM] unsigned char 
  2982 ;;  aexp            1   55[COMRAM] unsigned char 
  2983 ;;  signs           1   54[COMRAM] unsigned char 
  2984 ;; Return value:  Size  Location     Type
  2985 ;;                  4   42[COMRAM] unsigned char 
  2986 ;; Registers used:
  2987 ;;		wreg, status,2, status,0
  2988 ;; Tracked objects:
  2989 ;;		On entry : 0/0
  2990 ;;		On exit  : 0/0
  2991 ;;		Unchanged: 0/0
  2992 ;; Data sizes:     COMRAM   BANK0
  2993 ;;      Params:         8       0
  2994 ;;      Locals:         4       0
  2995 ;;      Temps:          4       0
  2996 ;;      Totals:        16       0
  2997 ;;Total ram usage:       16 bytes
  2998 ;; Hardware stack levels used: 1
  2999 ;; Hardware stack levels required when called: 1
  3000 ;; This function calls:
  3001 ;;		Nothing
  3002 ;; This function is called by:
  3003 ;;		_main
  3004 ;; This function uses a non-reentrant model
  3005 ;;
  3006                           
  3007                           	psect	text6
  3008   0000BA                     __ptext6:
  3009                           	callstack 0
  3010   0000BA                     ___fladd:
  3011                           	callstack 29
  3012   0000BA  502E               	movf	(___fladd@b+3)^0,w,c
  3013   0000BC  0B80               	andlw	128
  3014   0000BE  6E37               	movwf	___fladd@signs^0,c
  3015   0000C0  502E               	movf	(___fladd@b+3)^0,w,c
  3016   0000C2  242E               	addwf	(___fladd@b+3)^0,w,c
  3017   0000C4  6E39               	movwf	___fladd@bexp^0,c
  3018   0000C6  AE2D               	btfss	(___fladd@b+2)^0,7,c
  3019   0000C8  EF68  F000         	goto	u1451
  3020   0000CC  EF6A  F000         	goto	u1450
  3021   0000D0                     u1451:
  3022   0000D0  EF6B  F000         	goto	l1752
  3023   0000D4                     u1450:
  3024   0000D4  8039               	bsf	___fladd@bexp^0,0,c
  3025   0000D6                     l1752:
  3026   0000D6  5039               	movf	___fladd@bexp^0,w,c
  3027   0000D8  B4D8               	btfsc	status,2,c
  3028   0000DA  EF71  F000         	goto	u1461
  3029   0000DE  EF73  F000         	goto	u1460
  3030   0000E2                     u1461:
  3031   0000E2  EF87  F000         	goto	l1762
  3032   0000E6                     u1460:
  3033   0000E6  2839               	incf	___fladd@bexp^0,w,c
  3034   0000E8  A4D8               	btfss	status,2,c
  3035   0000EA  EF79  F000         	goto	u1471
  3036   0000EE  EF7B  F000         	goto	u1470
  3037   0000F2                     u1471:
  3038   0000F2  EF83  F000         	goto	l1758
  3039   0000F6                     u1470:
  3040   0000F6  0E00               	movlw	0
  3041   0000F8  6E2B               	movwf	___fladd@b^0,c
  3042   0000FA  0E00               	movlw	0
  3043   0000FC  6E2C               	movwf	(___fladd@b+1)^0,c
  3044   0000FE  0E00               	movlw	0
  3045   000100  6E2D               	movwf	(___fladd@b+2)^0,c
  3046   000102  0E00               	movlw	0
  3047   000104  6E2E               	movwf	(___fladd@b+3)^0,c
  3048   000106                     l1758:
  3049   000106  8E2D               	bsf	(___fladd@b+2)^0,7,c
  3050   000108  6A2E               	clrf	(___fladd@b+3)^0,c
  3051   00010A  EF8F  F000         	goto	l1764
  3052   00010E                     l1762:
  3053   00010E  0E00               	movlw	0
  3054   000110  6E2B               	movwf	___fladd@b^0,c
  3055   000112  0E00               	movlw	0
  3056   000114  6E2C               	movwf	(___fladd@b+1)^0,c
  3057   000116  0E00               	movlw	0
  3058   000118  6E2D               	movwf	(___fladd@b+2)^0,c
  3059   00011A  0E00               	movlw	0
  3060   00011C  6E2E               	movwf	(___fladd@b+3)^0,c
  3061   00011E                     l1764:
  3062   00011E  5032               	movf	(___fladd@a+3)^0,w,c
  3063   000120  0B80               	andlw	128
  3064   000122  6E38               	movwf	___fladd@aexp^0,c
  3065   000124  5037               	movf	___fladd@signs^0,w,c
  3066   000126  1838               	xorwf	___fladd@aexp^0,w,c
  3067   000128  B4D8               	btfsc	status,2,c
  3068   00012A  EF99  F000         	goto	u1481
  3069   00012E  EF9B  F000         	goto	u1480
  3070   000132                     u1481:
  3071   000132  EF9C  F000         	goto	l1770
  3072   000136                     u1480:
  3073   000136  8C37               	bsf	___fladd@signs^0,6,c
  3074   000138                     l1770:
  3075   000138  5032               	movf	(___fladd@a+3)^0,w,c
  3076   00013A  2432               	addwf	(___fladd@a+3)^0,w,c
  3077   00013C  6E38               	movwf	___fladd@aexp^0,c
  3078   00013E  AE31               	btfss	(___fladd@a+2)^0,7,c
  3079   000140  EFA4  F000         	goto	u1491
  3080   000144  EFA6  F000         	goto	u1490
  3081   000148                     u1491:
  3082   000148  EFA7  F000         	goto	l1776
  3083   00014C                     u1490:
  3084   00014C  8038               	bsf	___fladd@aexp^0,0,c
  3085   00014E                     l1776:
  3086   00014E  5038               	movf	___fladd@aexp^0,w,c
  3087   000150  B4D8               	btfsc	status,2,c
  3088   000152  EFAD  F000         	goto	u1501
  3089   000156  EFAF  F000         	goto	u1500
  3090   00015A                     u1501:
  3091   00015A  EFC3  F000         	goto	l1786
  3092   00015E                     u1500:
  3093   00015E  2838               	incf	___fladd@aexp^0,w,c
  3094   000160  A4D8               	btfss	status,2,c
  3095   000162  EFB5  F000         	goto	u1511
  3096   000166  EFB7  F000         	goto	u1510
  3097   00016A                     u1511:
  3098   00016A  EFBF  F000         	goto	l1782
  3099   00016E                     u1510:
  3100   00016E  0E00               	movlw	0
  3101   000170  6E2F               	movwf	___fladd@a^0,c
  3102   000172  0E00               	movlw	0
  3103   000174  6E30               	movwf	(___fladd@a+1)^0,c
  3104   000176  0E00               	movlw	0
  3105   000178  6E31               	movwf	(___fladd@a+2)^0,c
  3106   00017A  0E00               	movlw	0
  3107   00017C  6E32               	movwf	(___fladd@a+3)^0,c
  3108   00017E                     l1782:
  3109   00017E  8E31               	bsf	(___fladd@a+2)^0,7,c
  3110   000180  6A32               	clrf	(___fladd@a+3)^0,c
  3111   000182  EFCB  F000         	goto	l1788
  3112   000186                     l1786:
  3113   000186  0E00               	movlw	0
  3114   000188  6E2F               	movwf	___fladd@a^0,c
  3115   00018A  0E00               	movlw	0
  3116   00018C  6E30               	movwf	(___fladd@a+1)^0,c
  3117   00018E  0E00               	movlw	0
  3118   000190  6E31               	movwf	(___fladd@a+2)^0,c
  3119   000192  0E00               	movlw	0
  3120   000194  6E32               	movwf	(___fladd@a+3)^0,c
  3121   000196                     l1788:
  3122   000196  5039               	movf	___fladd@bexp^0,w,c
  3123   000198  5C38               	subwf	___fladd@aexp^0,w,c
  3124   00019A  B0D8               	btfsc	status,0,c
  3125   00019C  EFD2  F000         	goto	u1521
  3126   0001A0  EFD4  F000         	goto	u1520
  3127   0001A4                     u1521:
  3128   0001A4  EFFB  F000         	goto	l1824
  3129   0001A8                     u1520:
  3130   0001A8  AC37               	btfss	___fladd@signs^0,6,c
  3131   0001AA  EFD9  F000         	goto	u1531
  3132   0001AE  EFDB  F000         	goto	u1530
  3133   0001B2                     u1531:
  3134   0001B2  EFDD  F000         	goto	l1794
  3135   0001B6                     u1530:
  3136   0001B6  0E80               	movlw	128
  3137   0001B8  1A37               	xorwf	___fladd@signs^0,f,c
  3138   0001BA                     l1794:
  3139   0001BA  C039  F03A         	movff	___fladd@bexp,___fladd@grs
  3140   0001BE  C038  F039         	movff	___fladd@aexp,___fladd@bexp
  3141   0001C2  C03A  F038         	movff	___fladd@grs,___fladd@aexp
  3142   0001C6  C02B  F03A         	movff	___fladd@b,___fladd@grs
  3143   0001CA  C02F  F02B         	movff	___fladd@a,___fladd@b
  3144   0001CE  C03A  F02F         	movff	___fladd@grs,___fladd@a
  3145   0001D2  C02C  F03A         	movff	___fladd@b+1,___fladd@grs
  3146   0001D6  C030  F02C         	movff	___fladd@a+1,___fladd@b+1
  3147   0001DA  C03A  F030         	movff	___fladd@grs,___fladd@a+1
  3148   0001DE  C02D  F03A         	movff	___fladd@b+2,___fladd@grs
  3149   0001E2  C031  F02D         	movff	___fladd@a+2,___fladd@b+2
  3150   0001E6  C03A  F031         	movff	___fladd@grs,___fladd@a+2
  3151   0001EA  C02E  F03A         	movff	___fladd@b+3,___fladd@grs
  3152   0001EE  C032  F02E         	movff	___fladd@a+3,___fladd@b+3
  3153   0001F2  C03A  F032         	movff	___fladd@grs,___fladd@a+3
  3154   0001F6                     l1824:
  3155   0001F6  6A3A               	clrf	___fladd@grs^0,c
  3156   0001F8  5039               	movf	___fladd@bexp^0,w,c
  3157   0001FA  C038  F033         	movff	___fladd@aexp,??___fladd
  3158   0001FE  6A34               	clrf	(??___fladd+1)^0,c
  3159   000200  5E33               	subwf	??___fladd^0,f,c
  3160   000202  0E00               	movlw	0
  3161   000204  5A34               	subwfb	(??___fladd+1)^0,f,c
  3162   000206  BE34               	btfsc	(??___fladd+1)^0,7,c
  3163   000208  EF0F  F001         	goto	u1541
  3164   00020C  5034               	movf	(??___fladd+1)^0,w,c
  3165   00020E  E109               	bnz	u1540
  3166   000210  0E1A               	movlw	26
  3167   000212  5C33               	subwf	??___fladd^0,w,c
  3168   000214  A0D8               	btfss	status,0,c
  3169   000216  EF0F  F001         	goto	u1541
  3170   00021A  EF11  F001         	goto	u1540
  3171   00021E                     u1541:
  3172   00021E  EF48  F001         	goto	l660
  3173   000222                     u1540:
  3174   000222  502B               	movf	___fladd@b^0,w,c
  3175   000224  102C               	iorwf	(___fladd@b+1)^0,w,c
  3176   000226  102D               	iorwf	(___fladd@b+2)^0,w,c
  3177   000228  102E               	iorwf	(___fladd@b+3)^0,w,c
  3178   00022A  A4D8               	btfss	status,2,c
  3179   00022C  EF1A  F001         	goto	u1551
  3180   000230  EF1D  F001         	goto	u1550
  3181   000234                     u1551:
  3182   000234  0E01               	movlw	1
  3183   000236  EF1E  F001         	goto	u1560
  3184   00023A                     u1550:
  3185   00023A  0E00               	movlw	0
  3186   00023C                     u1560:
  3187   00023C  6E3A               	movwf	___fladd@grs^0,c
  3188   00023E  0E00               	movlw	0
  3189   000240  6E2B               	movwf	___fladd@b^0,c
  3190   000242  0E00               	movlw	0
  3191   000244  6E2C               	movwf	(___fladd@b+1)^0,c
  3192   000246  0E00               	movlw	0
  3193   000248  6E2D               	movwf	(___fladd@b+2)^0,c
  3194   00024A  0E00               	movlw	0
  3195   00024C  6E2E               	movwf	(___fladd@b+3)^0,c
  3196   00024E  C038  F039         	movff	___fladd@aexp,___fladd@bexp
  3197   000252  EF51  F001         	goto	l659
  3198   000256                     l661:
  3199   000256  A03A               	btfss	___fladd@grs^0,0,c
  3200   000258  EF30  F001         	goto	u1571
  3201   00025C  EF32  F001         	goto	u1570
  3202   000260                     u1571:
  3203   000260  EF38  F001         	goto	l1834
  3204   000264                     u1570:
  3205   000264  90D8               	bcf	status,0,c
  3206   000266  303A               	rrcf	___fladd@grs^0,w,c
  3207   000268  0901               	iorlw	1
  3208   00026A  6E3A               	movwf	___fladd@grs^0,c
  3209   00026C  EF3A  F001         	goto	l1836
  3210   000270                     l1834:
  3211   000270  90D8               	bcf	status,0,c
  3212   000272  323A               	rrcf	___fladd@grs^0,f,c
  3213   000274                     l1836:
  3214   000274  A02B               	btfss	___fladd@b^0,0,c
  3215   000276  EF3F  F001         	goto	u1581
  3216   00027A  EF41  F001         	goto	u1580
  3217   00027E                     u1581:
  3218   00027E  EF42  F001         	goto	l1840
  3219   000282                     u1580:
  3220   000282  8E3A               	bsf	___fladd@grs^0,7,c
  3221   000284                     l1840:
  3222   000284  342E               	rlcf	(___fladd@b+3)^0,w,c
  3223   000286  322E               	rrcf	(___fladd@b+3)^0,f,c
  3224   000288  322D               	rrcf	(___fladd@b+2)^0,f,c
  3225   00028A  322C               	rrcf	(___fladd@b+1)^0,f,c
  3226   00028C  322B               	rrcf	___fladd@b^0,f,c
  3227   00028E  2A39               	incf	___fladd@bexp^0,f,c
  3228   000290                     l660:
  3229   000290  5038               	movf	___fladd@aexp^0,w,c
  3230   000292  5C39               	subwf	___fladd@bexp^0,w,c
  3231   000294  A0D8               	btfss	status,0,c
  3232   000296  EF4F  F001         	goto	u1591
  3233   00029A  EF51  F001         	goto	u1590
  3234   00029E                     u1591:
  3235   00029E  EF2B  F001         	goto	l661
  3236   0002A2                     u1590:
  3237   0002A2                     l659:
  3238   0002A2  BC37               	btfsc	___fladd@signs^0,6,c
  3239   0002A4  EF56  F001         	goto	u1601
  3240   0002A8  EF58  F001         	goto	u1600
  3241   0002AC                     u1601:
  3242   0002AC  EF98  F001         	goto	l1868
  3243   0002B0                     u1600:
  3244   0002B0  5039               	movf	___fladd@bexp^0,w,c
  3245   0002B2  A4D8               	btfss	status,2,c
  3246   0002B4  EF5E  F001         	goto	u1611
  3247   0002B8  EF60  F001         	goto	u1610
  3248   0002BC                     u1611:
  3249   0002BC  EF6A  F001         	goto	l1850
  3250   0002C0                     u1610:
  3251   0002C0  0E00               	movlw	0
  3252   0002C2  6E2B               	movwf	?___fladd^0,c
  3253   0002C4  0E00               	movlw	0
  3254   0002C6  6E2C               	movwf	(?___fladd+1)^0,c
  3255   0002C8  0E00               	movlw	0
  3256   0002CA  6E2D               	movwf	(?___fladd+2)^0,c
  3257   0002CC  0E00               	movlw	0
  3258   0002CE  6E2E               	movwf	(?___fladd+3)^0,c
  3259   0002D0  EFB7  F002         	goto	l668
  3260   0002D4                     l1850:
  3261   0002D4  502F               	movf	___fladd@a^0,w,c
  3262   0002D6  262B               	addwf	___fladd@b^0,f,c
  3263   0002D8  5030               	movf	(___fladd@a+1)^0,w,c
  3264   0002DA  222C               	addwfc	(___fladd@b+1)^0,f,c
  3265   0002DC  5031               	movf	(___fladd@a+2)^0,w,c
  3266   0002DE  222D               	addwfc	(___fladd@b+2)^0,f,c
  3267   0002E0  5032               	movf	(___fladd@a+3)^0,w,c
  3268   0002E2  222E               	addwfc	(___fladd@b+3)^0,f,c
  3269   0002E4  A02E               	btfss	(___fladd@b+3)^0,0,c
  3270   0002E6  EF77  F001         	goto	u1621
  3271   0002EA  EF79  F001         	goto	u1620
  3272   0002EE                     u1621:
  3273   0002EE  EF25  F002         	goto	l673
  3274   0002F2                     u1620:
  3275   0002F2  A03A               	btfss	___fladd@grs^0,0,c
  3276   0002F4  EF7E  F001         	goto	u1631
  3277   0002F8  EF80  F001         	goto	u1630
  3278   0002FC                     u1631:
  3279   0002FC  EF86  F001         	goto	l1858
  3280   000300                     u1630:
  3281   000300  90D8               	bcf	status,0,c
  3282   000302  303A               	rrcf	___fladd@grs^0,w,c
  3283   000304  0901               	iorlw	1
  3284   000306  6E3A               	movwf	___fladd@grs^0,c
  3285   000308  EF88  F001         	goto	l1860
  3286   00030C                     l1858:
  3287   00030C  90D8               	bcf	status,0,c
  3288   00030E  323A               	rrcf	___fladd@grs^0,f,c
  3289   000310                     l1860:
  3290   000310  A02B               	btfss	___fladd@b^0,0,c
  3291   000312  EF8D  F001         	goto	u1641
  3292   000316  EF8F  F001         	goto	u1640
  3293   00031A                     u1641:
  3294   00031A  EF90  F001         	goto	l1864
  3295   00031E                     u1640:
  3296   00031E  8E3A               	bsf	___fladd@grs^0,7,c
  3297   000320                     l1864:
  3298   000320  342E               	rlcf	(___fladd@b+3)^0,w,c
  3299   000322  322E               	rrcf	(___fladd@b+3)^0,f,c
  3300   000324  322D               	rrcf	(___fladd@b+2)^0,f,c
  3301   000326  322C               	rrcf	(___fladd@b+1)^0,f,c
  3302   000328  322B               	rrcf	___fladd@b^0,f,c
  3303   00032A  2A39               	incf	___fladd@bexp^0,f,c
  3304   00032C  EF25  F002         	goto	l673
  3305   000330                     l1868:
  3306   000330  502F               	movf	___fladd@a^0,w,c
  3307   000332  5C2B               	subwf	___fladd@b^0,w,c
  3308   000334  5030               	movf	(___fladd@a+1)^0,w,c
  3309   000336  582C               	subwfb	(___fladd@b+1)^0,w,c
  3310   000338  5031               	movf	(___fladd@a+2)^0,w,c
  3311   00033A  582D               	subwfb	(___fladd@b+2)^0,w,c
  3312   00033C  502E               	movf	(___fladd@b+3)^0,w,c
  3313   00033E  0A80               	xorlw	128
  3314   000340  6E33               	movwf	??___fladd^0,c
  3315   000342  5032               	movf	(___fladd@a+3)^0,w,c
  3316   000344  0A80               	xorlw	128
  3317   000346  5833               	subwfb	??___fladd^0,w,c
  3318   000348  B0D8               	btfsc	status,0,c
  3319   00034A  EFA9  F001         	goto	u1651
  3320   00034E  EFAB  F001         	goto	u1650
  3321   000352                     u1651:
  3322   000352  EFD6  F001         	goto	l1878
  3323   000356                     u1650:
  3324   000356  502B               	movf	___fladd@b^0,w,c
  3325   000358  5C2F               	subwf	___fladd@a^0,w,c
  3326   00035A  6E33               	movwf	??___fladd^0,c
  3327   00035C  502C               	movf	(___fladd@b+1)^0,w,c
  3328   00035E  5830               	subwfb	(___fladd@a+1)^0,w,c
  3329   000360  6E34               	movwf	(??___fladd+1)^0,c
  3330   000362  502D               	movf	(___fladd@b+2)^0,w,c
  3331   000364  5831               	subwfb	(___fladd@a+2)^0,w,c
  3332   000366  6E35               	movwf	(??___fladd+2)^0,c
  3333   000368  502E               	movf	(___fladd@b+3)^0,w,c
  3334   00036A  5832               	subwfb	(___fladd@a+3)^0,w,c
  3335   00036C  6E36               	movwf	(??___fladd+3)^0,c
  3336   00036E  0EFF               	movlw	255
  3337   000370  2433               	addwf	??___fladd^0,w,c
  3338   000372  6E2B               	movwf	___fladd@b^0,c
  3339   000374  0EFF               	movlw	255
  3340   000376  2034               	addwfc	(??___fladd+1)^0,w,c
  3341   000378  6E2C               	movwf	(___fladd@b+1)^0,c
  3342   00037A  0EFF               	movlw	255
  3343   00037C  2035               	addwfc	(??___fladd+2)^0,w,c
  3344   00037E  6E2D               	movwf	(___fladd@b+2)^0,c
  3345   000380  0EFF               	movlw	255
  3346   000382  2036               	addwfc	(??___fladd+3)^0,w,c
  3347   000384  6E2E               	movwf	(___fladd@b+3)^0,c
  3348   000386  0E80               	movlw	128
  3349   000388  1A37               	xorwf	___fladd@signs^0,f,c
  3350   00038A  6C3A               	negf	___fladd@grs^0,c
  3351   00038C  503A               	movf	___fladd@grs^0,w,c
  3352   00038E  A4D8               	btfss	status,2,c
  3353   000390  EFCC  F001         	goto	u1661
  3354   000394  EFCE  F001         	goto	u1660
  3355   000398                     u1661:
  3356   000398  EFDE  F001         	goto	l676
  3357   00039C                     u1660:
  3358   00039C  0E01               	movlw	1
  3359   00039E  262B               	addwf	___fladd@b^0,f,c
  3360   0003A0  0E00               	movlw	0
  3361   0003A2  222C               	addwfc	(___fladd@b+1)^0,f,c
  3362   0003A4  222D               	addwfc	(___fladd@b+2)^0,f,c
  3363   0003A6  222E               	addwfc	(___fladd@b+3)^0,f,c
  3364   0003A8  EFDE  F001         	goto	l676
  3365   0003AC                     l1878:
  3366   0003AC  502F               	movf	___fladd@a^0,w,c
  3367   0003AE  5E2B               	subwf	___fladd@b^0,f,c
  3368   0003B0  5030               	movf	(___fladd@a+1)^0,w,c
  3369   0003B2  5A2C               	subwfb	(___fladd@b+1)^0,f,c
  3370   0003B4  5031               	movf	(___fladd@a+2)^0,w,c
  3371   0003B6  5A2D               	subwfb	(___fladd@b+2)^0,f,c
  3372   0003B8  5032               	movf	(___fladd@a+3)^0,w,c
  3373   0003BA  5A2E               	subwfb	(___fladd@b+3)^0,f,c
  3374   0003BC                     l676:
  3375   0003BC  502B               	movf	___fladd@b^0,w,c
  3376   0003BE  102C               	iorwf	(___fladd@b+1)^0,w,c
  3377   0003C0  102D               	iorwf	(___fladd@b+2)^0,w,c
  3378   0003C2  102E               	iorwf	(___fladd@b+3)^0,w,c
  3379   0003C4  A4D8               	btfss	status,2,c
  3380   0003C6  EFE7  F001         	goto	u1671
  3381   0003CA  EFE9  F001         	goto	u1670
  3382   0003CE                     u1671:
  3383   0003CE  EF1E  F002         	goto	l1902
  3384   0003D2                     u1670:
  3385   0003D2  503A               	movf	___fladd@grs^0,w,c
  3386   0003D4  A4D8               	btfss	status,2,c
  3387   0003D6  EFEF  F001         	goto	u1681
  3388   0003DA  EFF1  F001         	goto	u1680
  3389   0003DE                     u1681:
  3390   0003DE  EF1E  F002         	goto	l1902
  3391   0003E2                     u1680:
  3392   0003E2  0E00               	movlw	0
  3393   0003E4  6E2B               	movwf	?___fladd^0,c
  3394   0003E6  0E00               	movlw	0
  3395   0003E8  6E2C               	movwf	(?___fladd+1)^0,c
  3396   0003EA  0E00               	movlw	0
  3397   0003EC  6E2D               	movwf	(?___fladd+2)^0,c
  3398   0003EE  0E00               	movlw	0
  3399   0003F0  6E2E               	movwf	(?___fladd+3)^0,c
  3400   0003F2  EFB7  F002         	goto	l668
  3401   0003F6                     l1886:
  3402   0003F6  90D8               	bcf	status,0,c
  3403   0003F8  362B               	rlcf	___fladd@b^0,f,c
  3404   0003FA  362C               	rlcf	(___fladd@b+1)^0,f,c
  3405   0003FC  362D               	rlcf	(___fladd@b+2)^0,f,c
  3406   0003FE  362E               	rlcf	(___fladd@b+3)^0,f,c
  3407   000400  AE3A               	btfss	___fladd@grs^0,7,c
  3408   000402  EF05  F002         	goto	u1691
  3409   000406  EF07  F002         	goto	u1690
  3410   00040A                     u1691:
  3411   00040A  EF08  F002         	goto	l1892
  3412   00040E                     u1690:
  3413   00040E  802B               	bsf	___fladd@b^0,0,c
  3414   000410                     l1892:
  3415   000410  A03A               	btfss	___fladd@grs^0,0,c
  3416   000412  EF0D  F002         	goto	u1701
  3417   000416  EF0F  F002         	goto	u1700
  3418   00041A                     u1701:
  3419   00041A  EF13  F002         	goto	l1896
  3420   00041E                     u1700:
  3421   00041E  80D8               	bsf	status,0,c
  3422   000420  363A               	rlcf	___fladd@grs^0,f,c
  3423   000422  EF15  F002         	goto	l1898
  3424   000426                     l1896:
  3425   000426  90D8               	bcf	status,0,c
  3426   000428  363A               	rlcf	___fladd@grs^0,f,c
  3427   00042A                     l1898:
  3428   00042A  5039               	movf	___fladd@bexp^0,w,c
  3429   00042C  B4D8               	btfsc	status,2,c
  3430   00042E  EF1B  F002         	goto	u1711
  3431   000432  EF1D  F002         	goto	u1710
  3432   000436                     u1711:
  3433   000436  EF1E  F002         	goto	l1902
  3434   00043A                     u1710:
  3435   00043A  0639               	decf	___fladd@bexp^0,f,c
  3436   00043C                     l1902:
  3437   00043C  AE2D               	btfss	(___fladd@b+2)^0,7,c
  3438   00043E  EF23  F002         	goto	u1721
  3439   000442  EF25  F002         	goto	u1720
  3440   000446                     u1721:
  3441   000446  EFFB  F001         	goto	l1886
  3442   00044A                     u1720:
  3443   00044A                     l673:
  3444   00044A  6A38               	clrf	___fladd@aexp^0,c
  3445   00044C  AE3A               	btfss	___fladd@grs^0,7,c
  3446   00044E  EF2B  F002         	goto	u1731
  3447   000452  EF2D  F002         	goto	u1730
  3448   000456                     u1731:
  3449   000456  EF45  F002         	goto	l685
  3450   00045A                     u1730:
  3451   00045A  C03A  F033         	movff	___fladd@grs,??___fladd
  3452   00045E  0E7F               	movlw	127
  3453   000460  1633               	andwf	??___fladd^0,f,c
  3454   000462  B4D8               	btfsc	status,2,c
  3455   000464  EF36  F002         	goto	u1741
  3456   000468  EF38  F002         	goto	u1740
  3457   00046C                     u1741:
  3458   00046C  EF3C  F002         	goto	l686
  3459   000470                     u1740:
  3460   000470                     l1906:
  3461   000470  0E01               	movlw	1
  3462   000472  6E38               	movwf	___fladd@aexp^0,c
  3463   000474  EF45  F002         	goto	l685
  3464   000478                     l686:
  3465   000478  A02B               	btfss	___fladd@b^0,0,c
  3466   00047A  EF41  F002         	goto	u1751
  3467   00047E  EF43  F002         	goto	u1750
  3468   000482                     u1751:
  3469   000482  EF45  F002         	goto	l685
  3470   000486                     u1750:
  3471   000486  EF38  F002         	goto	l1906
  3472   00048A                     l685:
  3473   00048A  5038               	movf	___fladd@aexp^0,w,c
  3474   00048C  B4D8               	btfsc	status,2,c
  3475   00048E  EF4B  F002         	goto	u1761
  3476   000492  EF4D  F002         	goto	u1760
  3477   000496                     u1761:
  3478   000496  EF78  F002         	goto	l1918
  3479   00049A                     u1760:
  3480   00049A  0E01               	movlw	1
  3481   00049C  262B               	addwf	___fladd@b^0,f,c
  3482   00049E  0E00               	movlw	0
  3483   0004A0  222C               	addwfc	(___fladd@b+1)^0,f,c
  3484   0004A2  222D               	addwfc	(___fladd@b+2)^0,f,c
  3485   0004A4  222E               	addwfc	(___fladd@b+3)^0,f,c
  3486   0004A6  A02E               	btfss	(___fladd@b+3)^0,0,c
  3487   0004A8  EF58  F002         	goto	u1771
  3488   0004AC  EF5A  F002         	goto	u1770
  3489   0004B0                     u1771:
  3490   0004B0  EF78  F002         	goto	l1918
  3491   0004B4                     u1770:
  3492   0004B4  C02B  F033         	movff	___fladd@b,??___fladd
  3493   0004B8  C02C  F034         	movff	___fladd@b+1,??___fladd+1
  3494   0004BC  C02D  F035         	movff	___fladd@b+2,??___fladd+2
  3495   0004C0  C02E  F036         	movff	___fladd@b+3,??___fladd+3
  3496   0004C4  3436               	rlcf	(??___fladd+3)^0,w,c
  3497   0004C6  3236               	rrcf	(??___fladd+3)^0,f,c
  3498   0004C8  3235               	rrcf	(??___fladd+2)^0,f,c
  3499   0004CA  3234               	rrcf	(??___fladd+1)^0,f,c
  3500   0004CC  3233               	rrcf	??___fladd^0,f,c
  3501   0004CE  C033  F02B         	movff	??___fladd,___fladd@b
  3502   0004D2  C034  F02C         	movff	??___fladd+1,___fladd@b+1
  3503   0004D6  C035  F02D         	movff	??___fladd+2,___fladd@b+2
  3504   0004DA  C036  F02E         	movff	??___fladd+3,___fladd@b+3
  3505   0004DE  2839               	incf	___fladd@bexp^0,w,c
  3506   0004E0  B4D8               	btfsc	status,2,c
  3507   0004E2  EF75  F002         	goto	u1781
  3508   0004E6  EF77  F002         	goto	u1780
  3509   0004EA                     u1781:
  3510   0004EA  EF78  F002         	goto	l1918
  3511   0004EE                     u1780:
  3512   0004EE  2A39               	incf	___fladd@bexp^0,f,c
  3513   0004F0                     l1918:
  3514   0004F0  2839               	incf	___fladd@bexp^0,w,c
  3515   0004F2  B4D8               	btfsc	status,2,c
  3516   0004F4  EF7E  F002         	goto	u1791
  3517   0004F8  EF80  F002         	goto	u1790
  3518   0004FC                     u1791:
  3519   0004FC  EF88  F002         	goto	l1922
  3520   000500                     u1790:
  3521   000500  5039               	movf	___fladd@bexp^0,w,c
  3522   000502  A4D8               	btfss	status,2,c
  3523   000504  EF86  F002         	goto	u1801
  3524   000508  EF88  F002         	goto	u1800
  3525   00050C                     u1801:
  3526   00050C  EF99  F002         	goto	l692
  3527   000510                     u1800:
  3528   000510                     l1922:
  3529   000510  0E00               	movlw	0
  3530   000512  6E2B               	movwf	___fladd@b^0,c
  3531   000514  0E00               	movlw	0
  3532   000516  6E2C               	movwf	(___fladd@b+1)^0,c
  3533   000518  0E00               	movlw	0
  3534   00051A  6E2D               	movwf	(___fladd@b+2)^0,c
  3535   00051C  0E00               	movlw	0
  3536   00051E  6E2E               	movwf	(___fladd@b+3)^0,c
  3537   000520  5039               	movf	___fladd@bexp^0,w,c
  3538   000522  A4D8               	btfss	status,2,c
  3539   000524  EF96  F002         	goto	u1811
  3540   000528  EF98  F002         	goto	u1810
  3541   00052C                     u1811:
  3542   00052C  EF99  F002         	goto	l692
  3543   000530                     u1810:
  3544   000530  6A37               	clrf	___fladd@signs^0,c
  3545   000532                     l692:
  3546   000532  A039               	btfss	___fladd@bexp^0,0,c
  3547   000534  EF9E  F002         	goto	u1821
  3548   000538  EFA0  F002         	goto	u1820
  3549   00053C                     u1821:
  3550   00053C  EFA3  F002         	goto	l1928
  3551   000540                     u1820:
  3552   000540  8E2D               	bsf	(___fladd@b+2)^0,7,c
  3553   000542  EFA4  F002         	goto	l1930
  3554   000546                     l1928:
  3555   000546  9E2D               	bcf	(___fladd@b+2)^0,7,c
  3556   000548                     l1930:
  3557   000548  90D8               	bcf	status,0,c
  3558   00054A  3039               	rrcf	___fladd@bexp^0,w,c
  3559   00054C  6E2E               	movwf	(___fladd@b+3)^0,c
  3560   00054E  AE37               	btfss	___fladd@signs^0,7,c
  3561   000550  EFAC  F002         	goto	u1831
  3562   000554  EFAE  F002         	goto	u1830
  3563   000558                     u1831:
  3564   000558  EFAF  F002         	goto	l1936
  3565   00055C                     u1830:
  3566   00055C  8E2E               	bsf	(___fladd@b+3)^0,7,c
  3567   00055E                     l1936:
  3568   00055E  C02B  F02B         	movff	___fladd@b,?___fladd
  3569   000562  C02C  F02C         	movff	___fladd@b+1,?___fladd+1
  3570   000566  C02D  F02D         	movff	___fladd@b+2,?___fladd+2
  3571   00056A  C02E  F02E         	movff	___fladd@b+3,?___fladd+3
  3572   00056E                     l668:
  3573   00056E  0012               	return		;funcret
  3574   000570                     __end_of___fladd:
  3575                           	callstack 0
  3576                           
  3577 ;; *************** function ___aldiv *****************
  3578 ;; Defined at:
  3579 ;;		line 7 in file "C:\Program Files\Microchip\xc8\v3.00\pic\sources\c99\common\aldiv.c"
  3580 ;; Parameters:    Size  Location     Type
  3581 ;;  dividend        4    3[COMRAM] long 
  3582 ;;  divisor         4    7[COMRAM] long 
  3583 ;; Auto vars:     Size  Location     Type
  3584 ;;  quotient        4   13[COMRAM] long 
  3585 ;;  sign            1   12[COMRAM] unsigned char 
  3586 ;;  counter         1   11[COMRAM] unsigned char 
  3587 ;; Return value:  Size  Location     Type
  3588 ;;                  4    3[COMRAM] long 
  3589 ;; Registers used:
  3590 ;;		wreg, status,2, status,0
  3591 ;; Tracked objects:
  3592 ;;		On entry : 0/0
  3593 ;;		On exit  : 0/0
  3594 ;;		Unchanged: 0/0
  3595 ;; Data sizes:     COMRAM   BANK0
  3596 ;;      Params:         8       0
  3597 ;;      Locals:         6       0
  3598 ;;      Temps:          0       0
  3599 ;;      Totals:        14       0
  3600 ;;Total ram usage:       14 bytes
  3601 ;; Hardware stack levels used: 1
  3602 ;; Hardware stack levels required when called: 1
  3603 ;; This function calls:
  3604 ;;		Nothing
  3605 ;; This function is called by:
  3606 ;;		_main
  3607 ;; This function uses a non-reentrant model
  3608 ;;
  3609                           
  3610                           	psect	text7
  3611   00137E                     __ptext7:
  3612                           	callstack 0
  3613   00137E                     ___aldiv:
  3614                           	callstack 29
  3615   00137E  6A0D               	clrf	___aldiv@sign^0,c
  3616   001380  BE0B               	btfsc	(___aldiv@divisor+3)^0,7,c
  3617   001382  EFC7  F009         	goto	u1390
  3618   001386  EFC5  F009         	goto	u1391
  3619   00138A                     u1391:
  3620   00138A  EFD1  F009         	goto	l1710
  3621   00138E                     u1390:
  3622   00138E  1E0B               	comf	(___aldiv@divisor+3)^0,f,c
  3623   001390  1E0A               	comf	(___aldiv@divisor+2)^0,f,c
  3624   001392  1E09               	comf	(___aldiv@divisor+1)^0,f,c
  3625   001394  6C08               	negf	___aldiv@divisor^0,c
  3626   001396  0E00               	movlw	0
  3627   001398  2209               	addwfc	(___aldiv@divisor+1)^0,f,c
  3628   00139A  220A               	addwfc	(___aldiv@divisor+2)^0,f,c
  3629   00139C  220B               	addwfc	(___aldiv@divisor+3)^0,f,c
  3630   00139E  0E01               	movlw	1
  3631   0013A0  6E0D               	movwf	___aldiv@sign^0,c
  3632   0013A2                     l1710:
  3633   0013A2  BE07               	btfsc	(___aldiv@dividend+3)^0,7,c
  3634   0013A4  EFD8  F009         	goto	u1400
  3635   0013A8  EFD6  F009         	goto	u1401
  3636   0013AC                     u1401:
  3637   0013AC  EFE2  F009         	goto	l1716
  3638   0013B0                     u1400:
  3639   0013B0  1E07               	comf	(___aldiv@dividend+3)^0,f,c
  3640   0013B2  1E06               	comf	(___aldiv@dividend+2)^0,f,c
  3641   0013B4  1E05               	comf	(___aldiv@dividend+1)^0,f,c
  3642   0013B6  6C04               	negf	___aldiv@dividend^0,c
  3643   0013B8  0E00               	movlw	0
  3644   0013BA  2205               	addwfc	(___aldiv@dividend+1)^0,f,c
  3645   0013BC  2206               	addwfc	(___aldiv@dividend+2)^0,f,c
  3646   0013BE  2207               	addwfc	(___aldiv@dividend+3)^0,f,c
  3647   0013C0  0E01               	movlw	1
  3648   0013C2  1A0D               	xorwf	___aldiv@sign^0,f,c
  3649   0013C4                     l1716:
  3650   0013C4  0E00               	movlw	0
  3651   0013C6  6E0E               	movwf	___aldiv@quotient^0,c
  3652   0013C8  0E00               	movlw	0
  3653   0013CA  6E0F               	movwf	(___aldiv@quotient+1)^0,c
  3654   0013CC  0E00               	movlw	0
  3655   0013CE  6E10               	movwf	(___aldiv@quotient+2)^0,c
  3656   0013D0  0E00               	movlw	0
  3657   0013D2  6E11               	movwf	(___aldiv@quotient+3)^0,c
  3658   0013D4  5008               	movf	___aldiv@divisor^0,w,c
  3659   0013D6  1009               	iorwf	(___aldiv@divisor+1)^0,w,c
  3660   0013D8  100A               	iorwf	(___aldiv@divisor+2)^0,w,c
  3661   0013DA  100B               	iorwf	(___aldiv@divisor+3)^0,w,c
  3662   0013DC  B4D8               	btfsc	status,2,c
  3663   0013DE  EFF3  F009         	goto	u1411
  3664   0013E2  EFF5  F009         	goto	u1410
  3665   0013E6                     u1411:
  3666   0013E6  EF2B  F00A         	goto	l1738
  3667   0013EA                     u1410:
  3668   0013EA  0E01               	movlw	1
  3669   0013EC  6E0C               	movwf	___aldiv@counter^0,c
  3670   0013EE  EFFF  F009         	goto	l1724
  3671   0013F2                     l1722:
  3672   0013F2  90D8               	bcf	status,0,c
  3673   0013F4  3608               	rlcf	___aldiv@divisor^0,f,c
  3674   0013F6  3609               	rlcf	(___aldiv@divisor+1)^0,f,c
  3675   0013F8  360A               	rlcf	(___aldiv@divisor+2)^0,f,c
  3676   0013FA  360B               	rlcf	(___aldiv@divisor+3)^0,f,c
  3677   0013FC  2A0C               	incf	___aldiv@counter^0,f,c
  3678   0013FE                     l1724:
  3679   0013FE  AE0B               	btfss	(___aldiv@divisor+3)^0,7,c
  3680   001400  EF04  F00A         	goto	u1421
  3681   001404  EF06  F00A         	goto	u1420
  3682   001408                     u1421:
  3683   001408  EFF9  F009         	goto	l1722
  3684   00140C                     u1420:
  3685   00140C                     l1726:
  3686   00140C  90D8               	bcf	status,0,c
  3687   00140E  360E               	rlcf	___aldiv@quotient^0,f,c
  3688   001410  360F               	rlcf	(___aldiv@quotient+1)^0,f,c
  3689   001412  3610               	rlcf	(___aldiv@quotient+2)^0,f,c
  3690   001414  3611               	rlcf	(___aldiv@quotient+3)^0,f,c
  3691   001416  5008               	movf	___aldiv@divisor^0,w,c
  3692   001418  5C04               	subwf	___aldiv@dividend^0,w,c
  3693   00141A  5009               	movf	(___aldiv@divisor+1)^0,w,c
  3694   00141C  5805               	subwfb	(___aldiv@dividend+1)^0,w,c
  3695   00141E  500A               	movf	(___aldiv@divisor+2)^0,w,c
  3696   001420  5806               	subwfb	(___aldiv@dividend+2)^0,w,c
  3697   001422  500B               	movf	(___aldiv@divisor+3)^0,w,c
  3698   001424  5807               	subwfb	(___aldiv@dividend+3)^0,w,c
  3699   001426  A0D8               	btfss	status,0,c
  3700   001428  EF18  F00A         	goto	u1431
  3701   00142C  EF1A  F00A         	goto	u1430
  3702   001430                     u1431:
  3703   001430  EF23  F00A         	goto	l1734
  3704   001434                     u1430:
  3705   001434  5008               	movf	___aldiv@divisor^0,w,c
  3706   001436  5E04               	subwf	___aldiv@dividend^0,f,c
  3707   001438  5009               	movf	(___aldiv@divisor+1)^0,w,c
  3708   00143A  5A05               	subwfb	(___aldiv@dividend+1)^0,f,c
  3709   00143C  500A               	movf	(___aldiv@divisor+2)^0,w,c
  3710   00143E  5A06               	subwfb	(___aldiv@dividend+2)^0,f,c
  3711   001440  500B               	movf	(___aldiv@divisor+3)^0,w,c
  3712   001442  5A07               	subwfb	(___aldiv@dividend+3)^0,f,c
  3713   001444  800E               	bsf	___aldiv@quotient^0,0,c
  3714   001446                     l1734:
  3715   001446  90D8               	bcf	status,0,c
  3716   001448  320B               	rrcf	(___aldiv@divisor+3)^0,f,c
  3717   00144A  320A               	rrcf	(___aldiv@divisor+2)^0,f,c
  3718   00144C  3209               	rrcf	(___aldiv@divisor+1)^0,f,c
  3719   00144E  3208               	rrcf	___aldiv@divisor^0,f,c
  3720   001450  2E0C               	decfsz	___aldiv@counter^0,f,c
  3721   001452  EF06  F00A         	goto	l1726
  3722   001456                     l1738:
  3723   001456  500D               	movf	___aldiv@sign^0,w,c
  3724   001458  B4D8               	btfsc	status,2,c
  3725   00145A  EF31  F00A         	goto	u1441
  3726   00145E  EF33  F00A         	goto	u1440
  3727   001462                     u1441:
  3728   001462  EF3B  F00A         	goto	l1742
  3729   001466                     u1440:
  3730   001466  1E11               	comf	(___aldiv@quotient+3)^0,f,c
  3731   001468  1E10               	comf	(___aldiv@quotient+2)^0,f,c
  3732   00146A  1E0F               	comf	(___aldiv@quotient+1)^0,f,c
  3733   00146C  6C0E               	negf	___aldiv@quotient^0,c
  3734   00146E  0E00               	movlw	0
  3735   001470  220F               	addwfc	(___aldiv@quotient+1)^0,f,c
  3736   001472  2210               	addwfc	(___aldiv@quotient+2)^0,f,c
  3737   001474  2211               	addwfc	(___aldiv@quotient+3)^0,f,c
  3738   001476                     l1742:
  3739   001476  C00E  F004         	movff	___aldiv@quotient,?___aldiv
  3740   00147A  C00F  F005         	movff	___aldiv@quotient+1,?___aldiv+1
  3741   00147E  C010  F006         	movff	___aldiv@quotient+2,?___aldiv+2
  3742   001482  C011  F007         	movff	___aldiv@quotient+3,?___aldiv+3
  3743   001486  0012               	return		;funcret
  3744   001488                     __end_of___aldiv:
  3745                           	callstack 0
  3746                           
  3747 ;; *************** function _USART_Init *****************
  3748 ;; Defined at:
  3749 ;;		line 130 in file "FREQ_DISP_3_NGT.c"
  3750 ;; Parameters:    Size  Location     Type
  3751 ;;  baudrate        4   28[COMRAM] const long 
  3752 ;; Auto vars:     Size  Location     Type
  3753 ;;  valor_SPBRG     2   36[COMRAM] unsigned short 
  3754 ;; Return value:  Size  Location     Type
  3755 ;;                  1    wreg      void 
  3756 ;; Registers used:
  3757 ;;		wreg, status,2, status,0, cstack
  3758 ;; Tracked objects:
  3759 ;;		On entry : 0/0
  3760 ;;		On exit  : 0/0
  3761 ;;		Unchanged: 0/0
  3762 ;; Data sizes:     COMRAM   BANK0
  3763 ;;      Params:         4       0
  3764 ;;      Locals:         2       0
  3765 ;;      Temps:          4       0
  3766 ;;      Totals:        10       0
  3767 ;;Total ram usage:       10 bytes
  3768 ;; Hardware stack levels used: 1
  3769 ;; Hardware stack levels required when called: 2
  3770 ;; This function calls:
  3771 ;;		___lldiv
  3772 ;; This function is called by:
  3773 ;;		_main
  3774 ;; This function uses a non-reentrant model
  3775 ;;
  3776                           
  3777                           	psect	text8
  3778   001632                     __ptext8:
  3779                           	callstack 0
  3780   001632                     _USART_Init:
  3781                           	callstack 28
  3782   001632                     
  3783                           ;FREQ_DISP_3_NGT.c: 131:     uint16_t valor_SPBRG = (10000000 / (16UL * baudrate)) - 1;
  3784   001632  0E80               	movlw	128
  3785   001634  6E10               	movwf	___lldiv@dividend^0,c
  3786   001636  0E96               	movlw	150
  3787   001638  6E11               	movwf	(___lldiv@dividend+1)^0,c
  3788   00163A  0E98               	movlw	152
  3789   00163C  6E12               	movwf	(___lldiv@dividend+2)^0,c
  3790   00163E  0E00               	movlw	0
  3791   001640  6E13               	movwf	(___lldiv@dividend+3)^0,c
  3792   001642  C01D  F021         	movff	USART_Init@baudrate,??_USART_Init
  3793   001646  C01E  F022         	movff	USART_Init@baudrate+1,??_USART_Init+1
  3794   00164A  C01F  F023         	movff	USART_Init@baudrate+2,??_USART_Init+2
  3795   00164E  C020  F024         	movff	USART_Init@baudrate+3,??_USART_Init+3
  3796   001652  0E04               	movlw	4
  3797   001654                     u1355:
  3798   001654  90D8               	bcf	status,0,c
  3799   001656  3621               	rlcf	??_USART_Init^0,f,c
  3800   001658  3622               	rlcf	(??_USART_Init+1)^0,f,c
  3801   00165A  3623               	rlcf	(??_USART_Init+2)^0,f,c
  3802   00165C  3624               	rlcf	(??_USART_Init+3)^0,f,c
  3803   00165E  2EE8               	decfsz	wreg,f,c
  3804   001660  EF2A  F00B         	goto	u1355
  3805   001664  C021  F014         	movff	??_USART_Init,___lldiv@divisor
  3806   001668  C022  F015         	movff	??_USART_Init+1,___lldiv@divisor+1
  3807   00166C  C023  F016         	movff	??_USART_Init+2,___lldiv@divisor+2
  3808   001670  C024  F017         	movff	??_USART_Init+3,___lldiv@divisor+3
  3809   001674  ECC7  F00A         	call	___lldiv	;wreg free
  3810   001678  0EFF               	movlw	255
  3811   00167A  2410               	addwf	?___lldiv^0,w,c
  3812   00167C  6E25               	movwf	USART_Init@valor_SPBRG^0,c
  3813   00167E  0EFF               	movlw	255
  3814   001680  2011               	addwfc	(?___lldiv+1)^0,w,c
  3815   001682  6E26               	movwf	(USART_Init@valor_SPBRG+1)^0,c
  3816   001684                     
  3817                           ;FREQ_DISP_3_NGT.c: 133:     if (valor_SPBRG <= 255) {
  3818   001684  0426               	decf	(USART_Init@valor_SPBRG+1)^0,w,c
  3819   001686  B0D8               	btfsc	status,0,c
  3820   001688  EF48  F00B         	goto	u1361
  3821   00168C  EF4A  F00B         	goto	u1360
  3822   001690                     u1361:
  3823   001690  EF51  F00B         	goto	l85
  3824   001694                     u1360:
  3825   001694                     
  3826                           ;FREQ_DISP_3_NGT.c: 134:         TXSTAbits.BRGH = 1;
  3827   001694  84AC               	bsf	172,2,c	;volatile
  3828                           
  3829                           ;FREQ_DISP_3_NGT.c: 135:         BAUDCONbits.BRG16 = 0;
  3830   001696  96B8               	bcf	184,3,c	;volatile
  3831                           
  3832                           ;FREQ_DISP_3_NGT.c: 136:         SPBRG = valor_SPBRG;
  3833   001698  C025  FFAF         	movff	USART_Init@valor_SPBRG,4015	;volatile
  3834                           
  3835                           ;FREQ_DISP_3_NGT.c: 137:         SPBRGH = 0;
  3836   00169C  6AB0               	clrf	176,c	;volatile
  3837                           
  3838                           ;FREQ_DISP_3_NGT.c: 138:     } else {
  3839   00169E  EF57  F00B         	goto	l1670
  3840   0016A2                     l85:
  3841                           
  3842                           ;FREQ_DISP_3_NGT.c: 139:         TXSTAbits.BRGH = 0;
  3843   0016A2  94AC               	bcf	172,2,c	;volatile
  3844                           
  3845                           ;FREQ_DISP_3_NGT.c: 140:         BAUDCONbits.BRG16 = 1;
  3846   0016A4  86B8               	bsf	184,3,c	;volatile
  3847                           
  3848                           ;FREQ_DISP_3_NGT.c: 141:         SPBRG = valor_SPBRG & 0xFF;
  3849   0016A6  C025  FFAF         	movff	USART_Init@valor_SPBRG,4015	;volatile
  3850   0016AA                     
  3851                           ;FREQ_DISP_3_NGT.c: 142:         SPBRGH = (valor_SPBRG >> 8) & 0xFF;
  3852   0016AA  5026               	movf	(USART_Init@valor_SPBRG+1)^0,w,c
  3853   0016AC  6EB0               	movwf	176,c	;volatile
  3854   0016AE                     l1670:
  3855                           
  3856                           ;FREQ_DISP_3_NGT.c: 145:     TRISAbits.RA3 = 1;
  3857   0016AE  8692               	bsf	146,3,c	;volatile
  3858   0016B0                     
  3859                           ;FREQ_DISP_3_NGT.c: 146:     TRISAbits.RA2 = 0;
  3860   0016B0  9492               	bcf	146,2,c	;volatile
  3861   0016B2                     
  3862                           ;FREQ_DISP_3_NGT.c: 148:     TXSTAbits.SYNC = 0;
  3863   0016B2  98AC               	bcf	172,4,c	;volatile
  3864   0016B4                     
  3865                           ;FREQ_DISP_3_NGT.c: 149:     TXSTAbits.TXEN = 1;
  3866   0016B4  8AAC               	bsf	172,5,c	;volatile
  3867   0016B6                     
  3868                           ;FREQ_DISP_3_NGT.c: 150:     RCSTAbits.SPEN = 1;
  3869   0016B6  8EAB               	bsf	171,7,c	;volatile
  3870   0016B8                     
  3871                           ;FREQ_DISP_3_NGT.c: 151:     RCSTAbits.CREN = 1;
  3872   0016B8  88AB               	bsf	171,4,c	;volatile
  3873   0016BA                     
  3874                           ;FREQ_DISP_3_NGT.c: 153:     PIR1bits.RCIF = 0;
  3875   0016BA  9A9E               	bcf	158,5,c	;volatile
  3876   0016BC                     
  3877                           ;FREQ_DISP_3_NGT.c: 154:     PIE1bits.RCIE = 1;
  3878   0016BC  8A9D               	bsf	157,5,c	;volatile
  3879   0016BE                     
  3880                           ;FREQ_DISP_3_NGT.c: 155:     IPR1bits.RCIP = 1;
  3881   0016BE  8A9F               	bsf	159,5,c	;volatile
  3882   0016C0                     
  3883                           ;FREQ_DISP_3_NGT.c: 156:     INTCONbits.PEIE = 1;
  3884   0016C0  8CF2               	bsf	242,6,c	;volatile
  3885   0016C2                     
  3886                           ;FREQ_DISP_3_NGT.c: 157:     INTCONbits.GIE = 1;
  3887   0016C2  8EF2               	bsf	242,7,c	;volatile
  3888   0016C4  0012               	return		;funcret
  3889   0016C6                     __end_of_USART_Init:
  3890                           	callstack 0
  3891                           
  3892 ;; *************** function ___lldiv *****************
  3893 ;; Defined at:
  3894 ;;		line 7 in file "C:\Program Files\Microchip\xc8\v3.00\pic\sources\c99\common\__lldiv.c"
  3895 ;; Parameters:    Size  Location     Type
  3896 ;;  dividend        4   15[COMRAM] unsigned long 
  3897 ;;  divisor         4   19[COMRAM] unsigned long 
  3898 ;; Auto vars:     Size  Location     Type
  3899 ;;  quotient        4   23[COMRAM] unsigned long 
  3900 ;;  counter         1   27[COMRAM] unsigned char 
  3901 ;; Return value:  Size  Location     Type
  3902 ;;                  4   15[COMRAM] unsigned long 
  3903 ;; Registers used:
  3904 ;;		wreg, status,2, status,0
  3905 ;; Tracked objects:
  3906 ;;		On entry : 0/0
  3907 ;;		On exit  : 0/0
  3908 ;;		Unchanged: 0/0
  3909 ;; Data sizes:     COMRAM   BANK0
  3910 ;;      Params:         8       0
  3911 ;;      Locals:         5       0
  3912 ;;      Temps:          0       0
  3913 ;;      Totals:        13       0
  3914 ;;Total ram usage:       13 bytes
  3915 ;; Hardware stack levels used: 1
  3916 ;; Hardware stack levels required when called: 1
  3917 ;; This function calls:
  3918 ;;		Nothing
  3919 ;; This function is called by:
  3920 ;;		_USART_Init
  3921 ;;		_main
  3922 ;; This function uses a non-reentrant model
  3923 ;;
  3924                           
  3925                           	psect	text9
  3926   00158E                     __ptext9:
  3927                           	callstack 0
  3928   00158E                     ___lldiv:
  3929                           	callstack 29
  3930   00158E  0E00               	movlw	0
  3931   001590  6E18               	movwf	___lldiv@quotient^0,c
  3932   001592  0E00               	movlw	0
  3933   001594  6E19               	movwf	(___lldiv@quotient+1)^0,c
  3934   001596  0E00               	movlw	0
  3935   001598  6E1A               	movwf	(___lldiv@quotient+2)^0,c
  3936   00159A  0E00               	movlw	0
  3937   00159C  6E1B               	movwf	(___lldiv@quotient+3)^0,c
  3938   00159E  5014               	movf	___lldiv@divisor^0,w,c
  3939   0015A0  1015               	iorwf	(___lldiv@divisor+1)^0,w,c
  3940   0015A2  1016               	iorwf	(___lldiv@divisor+2)^0,w,c
  3941   0015A4  1017               	iorwf	(___lldiv@divisor+3)^0,w,c
  3942   0015A6  B4D8               	btfsc	status,2,c
  3943   0015A8  EFD8  F00A         	goto	u1321
  3944   0015AC  EFDA  F00A         	goto	u1320
  3945   0015B0                     u1321:
  3946   0015B0  EF10  F00B         	goto	l158
  3947   0015B4                     u1320:
  3948   0015B4  0E01               	movlw	1
  3949   0015B6  6E1C               	movwf	___lldiv@counter^0,c
  3950   0015B8  EFE4  F00A         	goto	l1648
  3951   0015BC                     l1646:
  3952   0015BC  90D8               	bcf	status,0,c
  3953   0015BE  3614               	rlcf	___lldiv@divisor^0,f,c
  3954   0015C0  3615               	rlcf	(___lldiv@divisor+1)^0,f,c
  3955   0015C2  3616               	rlcf	(___lldiv@divisor+2)^0,f,c
  3956   0015C4  3617               	rlcf	(___lldiv@divisor+3)^0,f,c
  3957   0015C6  2A1C               	incf	___lldiv@counter^0,f,c
  3958   0015C8                     l1648:
  3959   0015C8  AE17               	btfss	(___lldiv@divisor+3)^0,7,c
  3960   0015CA  EFE9  F00A         	goto	u1331
  3961   0015CE  EFEB  F00A         	goto	u1330
  3962   0015D2                     u1331:
  3963   0015D2  EFDE  F00A         	goto	l1646
  3964   0015D6                     u1330:
  3965   0015D6                     l1650:
  3966   0015D6  90D8               	bcf	status,0,c
  3967   0015D8  3618               	rlcf	___lldiv@quotient^0,f,c
  3968   0015DA  3619               	rlcf	(___lldiv@quotient+1)^0,f,c
  3969   0015DC  361A               	rlcf	(___lldiv@quotient+2)^0,f,c
  3970   0015DE  361B               	rlcf	(___lldiv@quotient+3)^0,f,c
  3971   0015E0  5014               	movf	___lldiv@divisor^0,w,c
  3972   0015E2  5C10               	subwf	___lldiv@dividend^0,w,c
  3973   0015E4  5015               	movf	(___lldiv@divisor+1)^0,w,c
  3974   0015E6  5811               	subwfb	(___lldiv@dividend+1)^0,w,c
  3975   0015E8  5016               	movf	(___lldiv@divisor+2)^0,w,c
  3976   0015EA  5812               	subwfb	(___lldiv@dividend+2)^0,w,c
  3977   0015EC  5017               	movf	(___lldiv@divisor+3)^0,w,c
  3978   0015EE  5813               	subwfb	(___lldiv@dividend+3)^0,w,c
  3979   0015F0  A0D8               	btfss	status,0,c
  3980   0015F2  EFFD  F00A         	goto	u1341
  3981   0015F6  EFFF  F00A         	goto	u1340
  3982   0015FA                     u1341:
  3983   0015FA  EF08  F00B         	goto	l1658
  3984   0015FE                     u1340:
  3985   0015FE  5014               	movf	___lldiv@divisor^0,w,c
  3986   001600  5E10               	subwf	___lldiv@dividend^0,f,c
  3987   001602  5015               	movf	(___lldiv@divisor+1)^0,w,c
  3988   001604  5A11               	subwfb	(___lldiv@dividend+1)^0,f,c
  3989   001606  5016               	movf	(___lldiv@divisor+2)^0,w,c
  3990   001608  5A12               	subwfb	(___lldiv@dividend+2)^0,f,c
  3991   00160A  5017               	movf	(___lldiv@divisor+3)^0,w,c
  3992   00160C  5A13               	subwfb	(___lldiv@dividend+3)^0,f,c
  3993   00160E  8018               	bsf	___lldiv@quotient^0,0,c
  3994   001610                     l1658:
  3995   001610  90D8               	bcf	status,0,c
  3996   001612  3217               	rrcf	(___lldiv@divisor+3)^0,f,c
  3997   001614  3216               	rrcf	(___lldiv@divisor+2)^0,f,c
  3998   001616  3215               	rrcf	(___lldiv@divisor+1)^0,f,c
  3999   001618  3214               	rrcf	___lldiv@divisor^0,f,c
  4000   00161A  2E1C               	decfsz	___lldiv@counter^0,f,c
  4001   00161C  EFEB  F00A         	goto	l1650
  4002   001620                     l158:
  4003   001620  C018  F010         	movff	___lldiv@quotient,?___lldiv
  4004   001624  C019  F011         	movff	___lldiv@quotient+1,?___lldiv+1
  4005   001628  C01A  F012         	movff	___lldiv@quotient+2,?___lldiv+2
  4006   00162C  C01B  F013         	movff	___lldiv@quotient+3,?___lldiv+3
  4007   001630  0012               	return		;funcret
  4008   001632                     __end_of___lldiv:
  4009                           	callstack 0
  4010                           
  4011 ;; *************** function _Timer1_Init *****************
  4012 ;; Defined at:
  4013 ;;		line 110 in file "FREQ_DISP_3_NGT.c"
  4014 ;; Parameters:    Size  Location     Type
  4015 ;;		None
  4016 ;; Auto vars:     Size  Location     Type
  4017 ;;		None
  4018 ;; Return value:  Size  Location     Type
  4019 ;;                  1    wreg      void 
  4020 ;; Registers used:
  4021 ;;		wreg, status,2
  4022 ;; Tracked objects:
  4023 ;;		On entry : 0/0
  4024 ;;		On exit  : 0/0
  4025 ;;		Unchanged: 0/0
  4026 ;; Data sizes:     COMRAM   BANK0
  4027 ;;      Params:         0       0
  4028 ;;      Locals:         0       0
  4029 ;;      Temps:          0       0
  4030 ;;      Totals:         0       0
  4031 ;;Total ram usage:        0 bytes
  4032 ;; Hardware stack levels used: 1
  4033 ;; Hardware stack levels required when called: 1
  4034 ;; This function calls:
  4035 ;;		Nothing
  4036 ;; This function is called by:
  4037 ;;		_main
  4038 ;; This function uses a non-reentrant model
  4039 ;;
  4040                           
  4041                           	psect	text10
  4042   00175A                     __ptext10:
  4043                           	callstack 0
  4044   00175A                     _Timer1_Init:
  4045                           	callstack 29
  4046   00175A                     
  4047                           ;FREQ_DISP_3_NGT.c: 113:     TMR1H = (TMR_VAL >> 8);
  4048   00175A  506D               	movf	(_TMR_VAL+1)^0,w,c
  4049   00175C  6ECF               	movwf	207,c	;volatile
  4050   00175E                     
  4051                           ;FREQ_DISP_3_NGT.c: 114:     TMR1L = TMR_VAL & 0xFF;
  4052   00175E  C06C  FFCE         	movff	_TMR_VAL,4046	;volatile
  4053   001762                     
  4054                           ;FREQ_DISP_3_NGT.c: 116:     T1CONbits.RD16 = 1;
  4055   001762  8ECD               	bsf	205,7,c	;volatile
  4056                           
  4057                           ;FREQ_DISP_3_NGT.c: 118:     T1CONbits.T1CKPS = 0b01;
  4058   001764  50CD               	movf	205,w,c	;volatile
  4059   001766  0BCF               	andlw	-49
  4060   001768  0910               	iorlw	16
  4061   00176A  6ECD               	movwf	205,c	;volatile
  4062   00176C                     
  4063                           ;FREQ_DISP_3_NGT.c: 119:     T1CONbits.T1OSCEN = 0;
  4064   00176C  96CD               	bcf	205,3,c	;volatile
  4065   00176E                     
  4066                           ;FREQ_DISP_3_NGT.c: 120:     T1CONbits.nT1SYNC = 0;
  4067   00176E  94CD               	bcf	205,2,c	;volatile
  4068   001770                     
  4069                           ;FREQ_DISP_3_NGT.c: 121:     T1CONbits.TMR1CS = 0;
  4070   001770  92CD               	bcf	205,1,c	;volatile
  4071   001772                     
  4072                           ;FREQ_DISP_3_NGT.c: 123:     PIR1bits.TMR1IF = 0;
  4073   001772  909E               	bcf	158,0,c	;volatile
  4074   001774                     
  4075                           ;FREQ_DISP_3_NGT.c: 124:     PIE1bits.TMR1IE = 1;
  4076   001774  809D               	bsf	157,0,c	;volatile
  4077   001776                     
  4078                           ;FREQ_DISP_3_NGT.c: 125:     INTCONbits.GIE = 1;
  4079   001776  8EF2               	bsf	242,7,c	;volatile
  4080   001778                     
  4081                           ;FREQ_DISP_3_NGT.c: 126:     INTCONbits.PEIE = 1;
  4082   001778  8CF2               	bsf	242,6,c	;volatile
  4083   00177A  0012               	return		;funcret
  4084   00177C                     __end_of_Timer1_Init:
  4085                           	callstack 0
  4086                           
  4087 ;; *************** function _PWM_Init *****************
  4088 ;; Defined at:
  4089 ;;		line 94 in file "FREQ_DISP_3_NGT.c"
  4090 ;; Parameters:    Size  Location     Type
  4091 ;;		None
  4092 ;; Auto vars:     Size  Location     Type
  4093 ;;		None
  4094 ;; Return value:  Size  Location     Type
  4095 ;;                  1    wreg      void 
  4096 ;; Registers used:
  4097 ;;		wreg, status,2
  4098 ;; Tracked objects:
  4099 ;;		On entry : 0/0
  4100 ;;		On exit  : 0/0
  4101 ;;		Unchanged: 0/0
  4102 ;; Data sizes:     COMRAM   BANK0
  4103 ;;      Params:         0       0
  4104 ;;      Locals:         0       0
  4105 ;;      Temps:          0       0
  4106 ;;      Totals:         0       0
  4107 ;;Total ram usage:        0 bytes
  4108 ;; Hardware stack levels used: 1
  4109 ;; Hardware stack levels required when called: 1
  4110 ;; This function calls:
  4111 ;;		Nothing
  4112 ;; This function is called by:
  4113 ;;		_main
  4114 ;; This function uses a non-reentrant model
  4115 ;;
  4116                           
  4117                           	psect	text11
  4118   001730                     __ptext11:
  4119                           	callstack 0
  4120   001730                     _PWM_Init:
  4121                           	callstack 29
  4122   001730                     
  4123                           ;FREQ_DISP_3_NGT.c: 95:     PTPERH = 0x00;
  4124   001730  6A95               	clrf	149,c	;volatile
  4125   001732                     
  4126                           ;FREQ_DISP_3_NGT.c: 96:     PTPERL = 0xFA;
  4127   001732  0EFA               	movlw	250
  4128   001734  6E96               	movwf	150,c	;volatile
  4129                           
  4130                           ;FREQ_DISP_3_NGT.c: 98:     PTCON0bits.PTMOD = 0b00;
  4131   001736  0EFC               	movlw	-4
  4132   001738  169A               	andwf	154,f,c	;volatile
  4133                           
  4134                           ;FREQ_DISP_3_NGT.c: 99:     PTCON0bits.PTOPS = 0b0000;
  4135   00173A  0E0F               	movlw	-241
  4136   00173C  169A               	andwf	154,f,c	;volatile
  4137                           
  4138                           ;FREQ_DISP_3_NGT.c: 100:     PTCON0bits.PTCKPS = 0b00;
  4139   00173E  0EF3               	movlw	-13
  4140   001740  169A               	andwf	154,f,c	;volatile
  4141   001742                     
  4142                           ;FREQ_DISP_3_NGT.c: 101:     PTCON1bits.PTEN = 1;
  4143   001742  8E99               	bsf	153,7,c	;volatile
  4144                           
  4145                           ;FREQ_DISP_3_NGT.c: 103:     PWMCON0bits.PWMEN = 0b001;
  4146   001744  5086               	movf	134,w,c	;volatile
  4147   001746  0B8F               	andlw	-113
  4148   001748  0910               	iorlw	16
  4149   00174A  6E86               	movwf	134,c	;volatile
  4150                           
  4151                           ;FREQ_DISP_3_NGT.c: 104:     PWMCON0bits.PMOD = 0b001;
  4152   00174C  5086               	movf	134,w,c	;volatile
  4153   00174E  0BF8               	andlw	-8
  4154   001750  0901               	iorlw	1
  4155   001752  6E86               	movwf	134,c	;volatile
  4156   001754                     
  4157                           ;FREQ_DISP_3_NGT.c: 105:     PDC0L = 0x00 & 0xFF;
  4158   001754  6A91               	clrf	145,c	;volatile
  4159   001756                     
  4160                           ;FREQ_DISP_3_NGT.c: 106:     PDC0H = (0x00 >> 8);
  4161   001756  6A90               	clrf	144,c	;volatile
  4162   001758  0012               	return		;funcret
  4163   00175A                     __end_of_PWM_Init:
  4164                           	callstack 0
  4165                           
  4166 ;; *************** function _INTOSC_Init *****************
  4167 ;; Defined at:
  4168 ;;		line 161 in file "FREQ_DISP_3_NGT.c"
  4169 ;; Parameters:    Size  Location     Type
  4170 ;;		None
  4171 ;; Auto vars:     Size  Location     Type
  4172 ;;		None
  4173 ;; Return value:  Size  Location     Type
  4174 ;;                  1    wreg      void 
  4175 ;; Registers used:
  4176 ;;		None
  4177 ;; Tracked objects:
  4178 ;;		On entry : 0/0
  4179 ;;		On exit  : 0/0
  4180 ;;		Unchanged: 0/0
  4181 ;; Data sizes:     COMRAM   BANK0
  4182 ;;      Params:         0       0
  4183 ;;      Locals:         0       0
  4184 ;;      Temps:          0       0
  4185 ;;      Totals:         0       0
  4186 ;;Total ram usage:        0 bytes
  4187 ;; Hardware stack levels used: 1
  4188 ;; Hardware stack levels required when called: 1
  4189 ;; This function calls:
  4190 ;;		Nothing
  4191 ;; This function is called by:
  4192 ;;		_main
  4193 ;; This function uses a non-reentrant model
  4194 ;;
  4195                           
  4196                           	psect	text12
  4197   001796                     __ptext12:
  4198                           	callstack 0
  4199   001796                     _INTOSC_Init:
  4200                           	callstack 29
  4201   001796                     
  4202                           ;FREQ_DISP_3_NGT.c: 162:     OSCCONbits.IDLEN = 1;
  4203   001796  8ED3               	bsf	211,7,c	;volatile
  4204   001798  0012               	return		;funcret
  4205   00179A                     __end_of_INTOSC_Init:
  4206                           	callstack 0
  4207                           
  4208 ;; *************** function _ISR *****************
  4209 ;; Defined at:
  4210 ;;		line 165 in file "FREQ_DISP_3_NGT.c"
  4211 ;; Parameters:    Size  Location     Type
  4212 ;;		None
  4213 ;; Auto vars:     Size  Location     Type
  4214 ;;		None
  4215 ;; Return value:  Size  Location     Type
  4216 ;;                  1    wreg      void 
  4217 ;; Registers used:
  4218 ;;		wreg, fsr2l, fsr2h, status,2, status,0
  4219 ;; Tracked objects:
  4220 ;;		On entry : 0/0
  4221 ;;		On exit  : 0/0
  4222 ;;		Unchanged: 0/0
  4223 ;; Data sizes:     COMRAM   BANK0
  4224 ;;      Params:         0       0
  4225 ;;      Locals:         0       0
  4226 ;;      Temps:          3       0
  4227 ;;      Totals:         3       0
  4228 ;;Total ram usage:        3 bytes
  4229 ;; Hardware stack levels used: 1
  4230 ;; This function calls:
  4231 ;;		Nothing
  4232 ;; This function is called by:
  4233 ;;		Interrupt level 2
  4234 ;; This function uses a non-reentrant model
  4235 ;;
  4236                           
  4237                           	psect	intcode
  4238   000008                     __pintcode:
  4239                           	callstack 0
  4240   000008                     _ISR:
  4241                           	callstack 28
  4242                           
  4243                           ;incstack = 0
  4244   000008  8272               	bsf	int$flags,1,c	;set compiler interrupt flag (level 2)
  4245   00000A  CFD9 F002          	movff	fsr2l,??_ISR+1
  4246   00000E  CFDA F003          	movff	fsr2h,??_ISR+2
  4247   000012                     
  4248                           ;FREQ_DISP_3_NGT.c: 166:     if (PIR1bits.RCIF) {
  4249   000012  AA9E               	btfss	158,5,c	;volatile
  4250   000014  EF0E  F000         	goto	i2u112_41
  4251   000018  EF10  F000         	goto	i2u112_40
  4252   00001C                     i2u112_41:
  4253   00001C  EF38  F000         	goto	i2l1510
  4254   000020                     i2u112_40:
  4255   000020                     
  4256                           ;FREQ_DISP_3_NGT.c: 167:         byte = RCREG;
  4257   000020  CFAE F06E          	movff	4014,_byte	;volatile
  4258                           
  4259                           ;FREQ_DISP_3_NGT.c: 168:         PIR1bits.RCIF = 0;
  4260   000024  9A9E               	bcf	158,5,c	;volatile
  4261   000026                     
  4262                           ;FREQ_DISP_3_NGT.c: 170:         if (cnt == 0 && byte != 0xAA) {
  4263   000026  5071               	movf	_cnt^0,w,c	;volatile
  4264   000028  A4D8               	btfss	status,2,c
  4265   00002A  EF19  F000         	goto	i2u113_41
  4266   00002E  EF1B  F000         	goto	i2u113_40
  4267   000032                     i2u113_41:
  4268   000032  EF26  F000         	goto	i2l1500
  4269   000036                     i2u113_40:
  4270   000036  0EAA               	movlw	170
  4271   000038  186E               	xorwf	_byte^0,w,c
  4272   00003A  B4D8               	btfsc	status,2,c
  4273   00003C  EF22  F000         	goto	i2u114_41
  4274   000040  EF24  F000         	goto	i2u114_40
  4275   000044                     i2u114_41:
  4276   000044  EF26  F000         	goto	i2l1500
  4277   000048                     i2u114_40:
  4278   000048  EF55  F000         	goto	i2l97
  4279   00004C                     i2l1500:
  4280                           
  4281                           ;FREQ_DISP_3_NGT.c: 174:         rx_buffer[cnt++] = byte;
  4282   00004C  5071               	movf	_cnt^0,w,c
  4283   00004E  0F65               	addlw	low _rx_buffer
  4284   000050  6ED9               	movwf	fsr2l,c
  4285   000052  6ADA               	clrf	fsr2h,c
  4286   000054  C06E  FFDF         	movff	_byte,indf2
  4287   000058  2A71               	incf	_cnt^0,f,c	;volatile
  4288   00005A                     
  4289                           ;FREQ_DISP_3_NGT.c: 177:         if (cnt >= 4) {
  4290   00005A  0E03               	movlw	3
  4291   00005C  6471               	cpfsgt	_cnt^0,c	;volatile
  4292   00005E  EF33  F000         	goto	i2u115_41
  4293   000062  EF35  F000         	goto	i2u115_40
  4294   000066                     i2u115_41:
  4295   000066  EF38  F000         	goto	i2l1510
  4296   00006A                     i2u115_40:
  4297   00006A                     
  4298                           ;FREQ_DISP_3_NGT.c: 178:             data_received = 1;
  4299   00006A  0E01               	movlw	1
  4300   00006C  6E70               	movwf	_data_received^0,c	;volatile
  4301   00006E                     
  4302                           ;FREQ_DISP_3_NGT.c: 179:             cnt = 0;
  4303   00006E  6A71               	clrf	_cnt^0,c	;volatile
  4304   000070                     i2l1510:
  4305                           
  4306                           ;FREQ_DISP_3_NGT.c: 184:     if (TMR1IF) {
  4307   000070  A09E               	btfss	3998,0,c	;volatile
  4308   000072  EF3D  F000         	goto	i2u116_41
  4309   000076  EF3F  F000         	goto	i2u116_40
  4310   00007A                     i2u116_41:
  4311   00007A  EF55  F000         	goto	i2l97
  4312   00007E                     i2u116_40:
  4313   00007E                     
  4314                           ;FREQ_DISP_3_NGT.c: 185:         TMR1H = (TMR_VAL >> 8);
  4315   00007E  506D               	movf	(_TMR_VAL+1)^0,w,c
  4316   000080  6ECF               	movwf	207,c	;volatile
  4317   000082                     
  4318                           ;FREQ_DISP_3_NGT.c: 186:         TMR1L = TMR_VAL & 0xFF;
  4319   000082  C06C  FFCE         	movff	_TMR_VAL,4046	;volatile
  4320   000086                     
  4321                           ;FREQ_DISP_3_NGT.c: 188:         LATBbits.LATB0 = !LATBbits.LATB0;
  4322   000086  A08A               	btfss	138,0,c	;volatile
  4323   000088  EF48  F000         	goto	i2u117_41
  4324   00008C  EF4C  F000         	goto	i2u117_40
  4325   000090                     i2u117_41:
  4326   000090  6A01               	clrf	??_ISR^0,c
  4327   000092  2A01               	incf	??_ISR^0,f,c
  4328   000094  EF4D  F000         	goto	i2u118_48
  4329   000098                     i2u117_40:
  4330   000098  6A01               	clrf	??_ISR^0,c
  4331   00009A                     i2u118_48:
  4332   00009A  508A               	movf	138,w,c	;volatile
  4333   00009C  1801               	xorwf	??_ISR^0,w,c
  4334   00009E  0BFE               	andlw	-2
  4335   0000A0  1801               	xorwf	??_ISR^0,w,c
  4336   0000A2  6E8A               	movwf	138,c	;volatile
  4337   0000A4                     
  4338                           ;FREQ_DISP_3_NGT.c: 189:         Start_HSM = 1;
  4339   0000A4  0E01               	movlw	1
  4340   0000A6  6E6F               	movwf	_Start_HSM^0,c	;volatile
  4341   0000A8                     
  4342                           ;FREQ_DISP_3_NGT.c: 190:         TMR1IF = 0;
  4343   0000A8  909E               	bcf	3998,0,c	;volatile
  4344   0000AA                     i2l97:
  4345   0000AA  C003  FFDA         	movff	??_ISR+2,fsr2h
  4346   0000AE  C002  FFD9         	movff	??_ISR+1,fsr2l
  4347   0000B2  9272               	bcf	int$flags,1,c	;clear compiler interrupt flag (level 2)
  4348   0000B4  0011               	retfie		f
  4349   0000B6                     __end_of_ISR:
  4350                           	callstack 0
  4351                           
  4352                           	psect	rparam
  4353   000001                     ___rparam_used  equ	1
  4354   000000                     ___param_bank   equ	0
  4355   000000                     __Lparam        equ	__Lrparam
  4356   000000                     __Hparam        equ	__Hrparam
  4357                           
  4358                           	psect	temp
  4359   000072                     btemp:
  4360                           	callstack 0
  4361   000072                     	ds	1
  4362   000072                     int$flags       set	btemp
  4363   000073                     wtemp8          set	btemp+1
  4364   000073                     ttemp5          set	btemp+1
  4365   000076                     ttemp6          set	btemp+4
  4366   00007A                     ttemp7          set	btemp+8
  4367                           
  4368                           	psect	config
  4369                           
  4370                           ; Padding undefined space
  4371   300000                     	org	3145728
  4372   300000  FF                 	db	255
  4373                           
  4374                           ;Config register CONFIG1H @ 0x300001
  4375                           ;	Oscillator
  4376                           ;	OSC = HS, HS Oscillator
  4377                           ;	Fail-Safe Clock Monitor Enable bit
  4378                           ;	FCMEN = OFF, Fail-Safe Clock Monitor disabled
  4379                           ;	Internal/External Oscillator Switchover bit
  4380                           ;	IESO = OFF, Oscillator Switchover mode disabled
  4381   300001                     	org	3145729
  4382   300001  02                 	db	2
  4383                           
  4384                           ;Config register CONFIG2L @ 0x300002
  4385                           ;	Power-up Timer Enable bit
  4386                           ;	PWRT = OFF, PWRT disabled
  4387                           ;	Brown-out Reset Enable bits
  4388                           ;	BOR = BOHW, Brown-out Reset enabled in hardware only (SBOREN is disabled)
  4389                           ;	Brown-out Reset Voltage bits
  4390                           ;	BORV = 3, Minimum setting
  4391   300002                     	org	3145730
  4392   300002  1F                 	db	31
  4393                           
  4394                           ;Config register CONFIG2H @ 0x300003
  4395                           ;	Watchdog Timer Enable bit
  4396                           ;	WDT = OFF, WDT disabled (control is placed on the SWDTEN bit)
  4397                           ;	Watchdog Timer Postscale Select bits
  4398                           ;	WDTPS = 32768, 1:32768
  4399   300003                     	org	3145731
  4400   300003  1E                 	db	30
  4401                           
  4402                           ;Config register CONFIG3L @ 0x300004
  4403                           ;	PWM Output Pins Reset State Control bit
  4404                           ;	PWMPIN = OFF, PWM outputs disabled upon Reset
  4405                           ;	Low-Side Transistors Polarity bit (Even PWM Output Polarity Control bit)
  4406                           ;	LPOL = LOW, PWM0, PWM2 and PWM4 are active-low
  4407                           ;	High Side Transistors Polarity bit (Odd PWM Output Polarity Control bit)
  4408                           ;	HPOL = LOW, PWM1, PWM3 and PWM5 are active-low
  4409   300004                     	org	3145732
  4410   300004  02                 	db	2
  4411                           
  4412                           ;Config register CONFIG3H @ 0x300005
  4413                           ;	FLTA Mux bit
  4414                           ;	FLTAMX = RA5, FLTA input is muxed onto RA5
  4415                           ;	T1OSO/T1CKI MUX bit
  4416                           ;	T1OSCMX = LOW, T1OSO/T1CKI pin resides on RB2
  4417                           ;	Master Clear Enable bit
  4418                           ;	MCLRE = ON, MCLR pin enabled, RA5 input pin disabled
  4419   300005                     	org	3145733
  4420   300005  81                 	db	129
  4421                           
  4422                           ;Config register CONFIG4L @ 0x300006
  4423                           ;	Stack Overflow/Underflow Reset Enable bit
  4424                           ;	STVREN = ON, Reset on stack overflow/underflow enabled
  4425                           ;	Boot Block Size Select bits
  4426                           ;	BBSIZ = BB256, 256 Words (512 Bytes) Boot Block size
  4427                           ;	Extended Instruction Set Enable bit
  4428                           ;	XINST = OFF, Instruction set extension and Indexed Addressing mode disabled
  4429                           ;	Background Debugger Enable bit
  4430                           ;	DEBUG = 0x1, unprogrammed default
  4431   300006                     	org	3145734
  4432   300006  81                 	db	129
  4433                           
  4434                           ; Padding undefined space
  4435   300007                     	org	3145735
  4436   300007  FF                 	db	255
  4437                           
  4438                           ;Config register CONFIG5L @ 0x300008
  4439                           ;	Code Protection bit Block 0 (000800-000FFF)
  4440                           ;	CP0 = OFF, Block 0 is not code-protected
  4441                           ;	Code Protection bit Block 1 (001000-001FFF)
  4442                           ;	CP1 = OFF, Block 1 is not code-protected
  4443   300008                     	org	3145736
  4444   300008  03                 	db	3
  4445                           
  4446                           ;Config register CONFIG5H @ 0x300009
  4447                           ;	Code Protection bit (Boot Block Memory Area)
  4448                           ;	CPB = OFF, Boot Block is not code-protected
  4449                           ;	Code Protection bit (Data EEPROM)
  4450                           ;	CPD = OFF, Data EEPROM is not code-protected
  4451   300009                     	org	3145737
  4452   300009  C0                 	db	192
  4453                           
  4454                           ;Config register CONFIG6L @ 0x30000A
  4455                           ;	Write Protection bit Block 0 (000800-000FFF)
  4456                           ;	WRT0 = OFF, Block 0 is not write-protected
  4457                           ;	Write Protection bit Block 1 (001000-001FFF)
  4458                           ;	WRT1 = OFF, Block 1 is not write-protected
  4459   30000A                     	org	3145738
  4460   30000A  03                 	db	3
  4461                           
  4462                           ;Config register CONFIG6H @ 0x30000B
  4463                           ;	Write Protection bit (Configuration Registers)
  4464                           ;	WRTC = OFF, Configuration registers are not write-protected
  4465                           ;	Write Protection bit (Boot Block Memory Area)
  4466                           ;	WRTB = OFF, Boot Block is not write-protected
  4467                           ;	Write Protection bit (Data EEPROM)
  4468                           ;	WRTD = OFF, Data EEPROM is not write-protected
  4469   30000B                     	org	3145739
  4470   30000B  E0                 	db	224
  4471                           
  4472                           ;Config register CONFIG7L @ 0x30000C
  4473                           ;	Table Read Protection bit Block 0 (000800-000FFF)
  4474                           ;	EBTR0 = OFF, Block 0 is not protected from table reads executed in other blocks
  4475                           ;	Table Read Protection bit Block 1 (001000-001FFF)
  4476                           ;	EBTR1 = OFF, Block 1 is not protected from table reads executed in other blocks
  4477   30000C                     	org	3145740
  4478   30000C  03                 	db	3
  4479                           
  4480                           ;Config register CONFIG7H @ 0x30000D
  4481                           ;	Table Read Protection bit (Boot Block Memory Area)
  4482                           ;	EBTRB = OFF, Boot Block is not protected from table reads executed in other blocks
  4483   30000D                     	org	3145741
  4484   30000D  40                 	db	64
  4485                           tosu	equ	0xFFF
  4486                           tosh	equ	0xFFE
  4487                           tosl	equ	0xFFD
  4488                           stkptr	equ	0xFFC
  4489                           pclatu	equ	0xFFB
  4490                           pclath	equ	0xFFA
  4491                           pcl	equ	0xFF9
  4492                           tblptru	equ	0xFF8
  4493                           tblptrh	equ	0xFF7
  4494                           tblptrl	equ	0xFF6
  4495                           tablat	equ	0xFF5
  4496                           prodh	equ	0xFF4
  4497                           prodl	equ	0xFF3
  4498                           indf0	equ	0xFEF
  4499                           postinc0	equ	0xFEE
  4500                           postdec0	equ	0xFED
  4501                           preinc0	equ	0xFEC
  4502                           plusw0	equ	0xFEB
  4503                           fsr0h	equ	0xFEA
  4504                           fsr0l	equ	0xFE9
  4505                           wreg	equ	0xFE8
  4506                           indf1	equ	0xFE7
  4507                           postinc1	equ	0xFE6
  4508                           postdec1	equ	0xFE5
  4509                           preinc1	equ	0xFE4
  4510                           plusw1	equ	0xFE3
  4511                           fsr1h	equ	0xFE2
  4512                           fsr1l	equ	0xFE1
  4513                           bsr	equ	0xFE0
  4514                           indf2	equ	0xFDF
  4515                           postinc2	equ	0xFDE
  4516                           postdec2	equ	0xFDD
  4517                           preinc2	equ	0xFDC
  4518                           plusw2	equ	0xFDB
  4519                           fsr2h	equ	0xFDA
  4520                           fsr2l	equ	0xFD9
  4521                           status	equ	0xFD8

Data Sizes:
    Strings     0
    Constant    364
    Data        0
    BSS         13
    Persistent  0
    Stack       0

Auto Spaces:
    Space          Size  Autos    Used
    COMRAM          126    100     113
    BANK0           128      0       0

Pointer List with Targets:

    None.

Critical Paths under _main in COMRAM

    _main->___fltol
    ___fltol->___fladd
    ___flmul->___xxtofl
    ___fldiv->___xxtofl
    ___fladd->___flmul
    _USART_Init->___lldiv
    ___lldiv->___lmul

Critical Paths under _ISR in COMRAM

    None.

Critical Paths under _main in BANK0

    None.

Critical Paths under _ISR in BANK0

    None.

Call Graph Tables:

 ---------------------------------------------------------------------------------
 (Depth) Function   	        Calls       Base Space   Used Autos Params    Refs
 ---------------------------------------------------------------------------------
 (0) _main                                                32    32      0    7085
                                             68 COMRAM    32    32      0
                        _INTOSC_Init
                           _PWM_Init
                        _Timer1_Init
                         _USART_Init
                            ___aldiv
                            ___fladd
                            ___fldiv
                            ___flmul
                            ___fltol
                            ___lldiv
                             ___lmul
                           ___xxtofl
 ---------------------------------------------------------------------------------
 (1) ___xxtofl                                            14    10      4     339
                                              3 COMRAM    14    10      4
 ---------------------------------------------------------------------------------
 (1) ___lmul                                              12     4      8      94
                                              3 COMRAM    12     4      8
 ---------------------------------------------------------------------------------
 (1) ___fltol                                             10     6      4     232
                                             58 COMRAM    10     6      4
                            ___fladd (ARG)
                            ___flmul (ARG)
                           ___xxtofl (ARG)
 ---------------------------------------------------------------------------------
 (1) ___flmul                                             25    17      8    1470
                                             17 COMRAM    25    17      8
                           ___xxtofl (ARG)
 ---------------------------------------------------------------------------------
 (1) ___fldiv                                             25    17      8    1125
                                             17 COMRAM    25    17      8
                           ___xxtofl (ARG)
 ---------------------------------------------------------------------------------
 (1) ___fladd                                             16     8      8    1986
                                             42 COMRAM    16     8      8
                            ___flmul (ARG)
                           ___xxtofl (ARG)
 ---------------------------------------------------------------------------------
 (1) ___aldiv                                             14     6      8     302
                                              3 COMRAM    14     6      8
 ---------------------------------------------------------------------------------
 (1) _USART_Init                                          10     6      4     278
                                             28 COMRAM    10     6      4
                            ___lldiv
 ---------------------------------------------------------------------------------
 (1) ___lldiv                                             13     5      8     166
                                             15 COMRAM    13     5      8
                             ___lmul (ARG)
 ---------------------------------------------------------------------------------
 (1) _Timer1_Init                                          0     0      0       0
 ---------------------------------------------------------------------------------
 (1) _PWM_Init                                             0     0      0       0
 ---------------------------------------------------------------------------------
 (1) _INTOSC_Init                                          0     0      0       0
 ---------------------------------------------------------------------------------
 Estimated maximum stack depth 1
 ---------------------------------------------------------------------------------
 (Depth) Function   	        Calls       Base Space   Used Autos Params    Refs
 ---------------------------------------------------------------------------------
 (3) _ISR                                                  3     3      0       0
                                              0 COMRAM     3     3      0
 ---------------------------------------------------------------------------------
 Estimated maximum stack depth 3
 ---------------------------------------------------------------------------------

 Call Graph Graphs:

 _main (ROOT)
   _INTOSC_Init
   _PWM_Init
   _Timer1_Init
   _USART_Init
     ___lldiv
       ___lmul (ARG)
   ___aldiv
   ___fladd
     ___flmul (ARG)
       ___xxtofl (ARG)
     ___xxtofl (ARG)
   ___fldiv
     ___xxtofl (ARG)
   ___flmul
   ___fltol
     ___fladd (ARG)
     ___flmul (ARG)
     ___xxtofl (ARG)
   ___lldiv
   ___lmul
   ___xxtofl

 _ISR (ROOT)

Address spaces:
Name               Size   Autos  Total    Usage
BIGRAM             255      0       0      0.0%
BITBANK0           128      0       0      0.0%
BANK0              128      0       0      0.0%
BITCOMRAM          126      0       0      0.0%
COMRAM             126    100     113     89.7%
BITBIGSFRh         109      0       0      0.0%
BITBIGSFRllh         9      0       0      0.0%
BITBIGSFRlll         6      0       0      0.0%
BITBIGSFRlh          1      0       0      0.0%
STACK                0      0       0      0.0%
DATA                 0      0     113      0.0%


Microchip Technology PIC18 Macro Assembler V3.00 build 20241204225717 
Symbol Table                                                                                   Wed Jul 02 19:59:06 2025

           ___fldiv@aexp 002A             ___fldiv@bexp 0029             ___fldiv@sign 0022  
                     l90 1798                       l82 177A                       l85 16A2  
                     l79 1758                       l87 16C4                      l210 1486  
                    l122 09AE                      l108 0614                      l125 0A08  
                    l142 171E                      l118 0926                      l143 172E  
                    l165 1630                      l158 1620                      l428 158C  
                    l800 1314                      l713 11C8                      l715 102C  
                    l660 0290                      l724 1072                      l661 0256  
                    l725 1090                      l830 1742                      l726 10E8  
                    l718 0FF0                      l727 10D6                      l832 1754  
                    l840 1762                      l752 0CCE                      l673 044A  
                    l753 0CEC                      l745 0AD8                      l834 1756  
                    l826 1730                      l850 1774                      l842 176C  
                    l762 0DFA                      l754 0D44                      l659 02A2  
                    l755 0D32                      l828 1732                      l852 1776  
                    l844 176E                      l836 175A                      l692 0532  
                    l676 03BC                      l668 056E                      l685 048A  
                    l749 0E38                      l854 1778                      l846 1770  
                    l838 175E                      l686 0478                      l848 1772  
                    l793 12B8                      l786 1220                      l789 137C  
                    l886 1796                      _ISR 0008                      _cnt 0071  
            main@Voltage 0055                      wreg 0FE8             ___flmul@aexp 0023  
           ___flmul@bexp 0024             ___flmul@sign 001E             ___flmul@temp 0029  
           ___flmul@prod 0025                     ?_ISR 0001             ___fltol@exp1 0044  
                   l2000 0F86                     l2010 0FCC                     l2002 0F96  
                   l2020 101A                     l2012 0FE0                     l2004 0FA6  
                   l2100 0A92                     l2030 1062                     l2022 102A  
                   l2014 0FEE                     l2006 0FB6                     l2110 0AE8  
                   l2102 0AA2                     l2032 1070                     l2024 103C  
                   l2016 0FFA                     l2008 0FBC                     l2200 0E28  
                   l2120 0B22                     l2112 0AF8                     l2104 0AB2  
                   l2042 10F8                     l2050 1140                     l2026 1052  
                   l2034 1082                     l2018 1018                     l2130 0B74  
                   l2122 0B38                     l2106 0AC2                     l2210 14B2  
                   l2060 11A4                     l2052 115A                     l2044 1104  
                   l2036 10A0                     l2028 1058                     l2140 0BBA  
                   l2132 0B82                     l2124 0B44                     l2116 0B0C  
                   l2108 0AC8                     l2220 1500                     l2212 14DC  
                   l2204 1488                     l2300 05B0                     l2062 11A8  
                   l2054 1170                     l2046 1112                     l2038 10CE  
                   l2150 0C28                     l2142 0BD4                     l2134 0B8E  
                   l2126 0B5C                     l2118 0B18                     l2230 152C  
                   l2214 14DE                     l2206 149E                     l2310 05E8  
                   l2302 05C4                     l2064 11B6                     l2056 118A  
                   l2048 113C                     l2160 0CBE                     l2152 0C52  
                   l2144 0BE4                     l2136 0B9E                     l2128 0B68  
                   l2080 0A2E                     l2240 155C                     l2216 14EE  
                   l2400 09C8                     l2320 0740                     l2312 05EA  
                   l2304 05C8                     l2066 11BC                     l2058 11A2  
                   l2162 0CCC                     l2154 0C88                     l2146 0C00  
                   l2138 0BAA                     l2090 0A66                     l2082 0A30  
                   l2242 156C                     l2226 1518                     l2218 14F2  
                   l2250 11DC                     l2402 09E4                     l2410 09F6  
                   l2322 07B0                     l2330 083C                     l2314 0602  
                   l2306 05D8                     l2068 11BE                     l2172 0D54  
                   l2180 0D9C                     l2164 0CDE                     l2156 0C96  
                   l2148 0C0C                     l2092 0A76                     l2084 0A40  
                   l2076 0A14                     l2244 157C                     l2236 1540  
                   l2228 1522                     l1700 16FE                     l2260 125A  
                   l2252 11EA                     l2404 09E8                     l2340 0888  
                   l2324 07C0                     l2316 0622                     l2332 084E  
                   l2308 05DC                     l1710 13A2                     l1702 137E  
                   l2190 0DFE                     l2182 0DB6                     l2174 0D60  
                   l2166 0CFC                     l2158 0CB4                     l2094 0A7C  
                   l2086 0A50                     l2078 0A20                     l2238 154C  
                   l2270 12AE                     l2262 1262                     l2254 1230  
                   l2406 09EC                     l2342 08A4                     l2350 08B6  
                   l2334 085E                     l2326 07C4                     l2318 073A  
                   l1640 158E                     l1720 13EA                     l1712 13B0  
                   l1704 1380                     l1800 01C6                     l2192 0E0E  
                   l2184 0DCA                     l2176 0D6E                     l2168 0D2A  
                   l2096 0A82                     l2088 0A60                     l2280 1324  
                   l2272 12EA                     l2264 126E                     l2256 1246  
                   l2248 11CC                     l2408 09F4                     l2360 08F4  
                   l2352 08C8                     l2344 08A8                     l2336 086E  
                   l2328 083A                     l1650 15D6                     l1642 159E  
                   l1730 1434                     l1722 13F2                     l1714 13C0  
                   l1706 138E                     l1810 01DA                     l1802 01CA  
                   l2194 0E1C                     l2186 0DE4                     l2178 0D98  
                   l2098 0A90                     l2290 136C                     l2282 1328  
                   l2274 12F6                     l2266 12A0                     l2362 0910  
                   l2354 08CC                     l2346 08AC                     l2338 0874  
                   l1660 161A                     l1652 15E0                     l1644 15B4  
                   l1740 1466                     l1732 1444                     l1724 13FE  
                   l1716 13C4                     l1708 139E                     l1900 043A  
                   l1820 01EE                     l1812 01DE                     l1804 01CE  
                   l2196 0E1E                     l2188 0DF4                     l2284 134C  
                   l2276 1304                     l2268 12A2                     l2380 0954  
                   l2372 0928                     l2364 0914                     l2348 08B4  
                   l1654 15FE                     l1646 15BC                     l1670 16AE  
                   l1662 1632                     l1742 1476                     l1734 1446  
                   l1726 140C                     l1718 13D4                     l1910 049A  
                   l1902 043C                     l1830 024E                     l1822 01F2  
                   l1814 01E2                     l1806 01D2                     l1750 00D4  
                   l2198 0E24                     l2286 135C                     l2278 1322  
                   l2390 099C                     l2366 0918                     l2358 08E0  
                   l2374 0930                     l2294 0570                     l1656 160E  
                   l1648 15C8                     l1680 16B8                     l1672 16B0  
                   l1664 1684                     l1736 1450                     l1728 1416  
                   l1920 0500                     l1912 04A6                     l1904 045A  
                   l1840 0284                     l1832 0264                     l1816 01E6  
                   l1808 01D6                     l1824 01F6                     l1760 0108  
                   l1752 00D6                     l2288 136A                     l2392 09A0  
                   l2384 0968                     l2376 0940                     l2368 0920  
                   l2296 0584                     l1658 1610                     l1690 16C2  
                   l1682 16BA                     l1674 16B2                     l1666 1694  
                   l1738 1456                     l1930 0548                     l1922 0510  
                   l1914 04B4                     l1906 0470                     l1850 02D4  
                   l1842 028E                     l1834 0270                     l1826 0222  
                   l1818 01EA                     l1770 0138                     l1754 00E6  
                   l1762 010E                     l1746 00BA                     l2394 09A8  
                   l2386 097C                     l2378 0950                     l2298 05A8  
                   l1684 16BC                     l1676 16B4                     l1668 16AA  
                   l1932 054E                     l1924 0530                     l1916 04EE  
                   l1860 0310                     l1852 02E4                     l1844 02B0  
                   l1836 0274                     l1828 023E                     l1780 016E  
                   l1772 013E                     l1764 011E                     l1756 00F6  
                   l1748 00C6                     l1940 0E3A                     l1692 16C6  
                   l2388 0998                     l1686 16BE                     l1678 16B6  
                   l1934 055C                     l1926 0540                     l1918 04F0  
                   l1870 0356                     l1862 031E                     l1854 02F2  
                   l1846 02C0                     l1838 0282                     l1790 01A8  
                   l1782 017E                     l1774 014C                     l1766 0124  
                   l1758 0106                     l1950 0E76                     l1942 0E46  
                   l1694 16D6                     l2398 09B4                     l1688 16C0  
                   l1936 055E                     l1928 0546                     l1880 03D2  
                   l1872 038A                     l1864 0320                     l1856 0300  
                   l1792 01B6                     l1784 0180                     l1776 014E  
                   l1768 0136                     l1960 0EA4                     l1952 0E86  
                   l1944 0E54                     l1696 16E4                     l1890 040E  
                   l1882 03E2                     l1874 038C                     l1866 032A  
                   l1858 030C                     l1794 01BA                     l1778 015E  
                   l1786 0186                     l1970 0EDA                     l1962 0EAA  
                   l1954 0E88                     l1946 0E56                     l1698 16F4  
                   l1892 0410                     l1876 039C                     l1868 0330  
                   l1796 01BE                     l1788 0196                     l1980 0F18  
                   l1972 0EEA                     l1964 0EB8                     l1948 0E66  
                   l1956 0E8E                     l1894 041E                     l1886 03F6  
                   l1878 03AC                     l1798 01C2                     l1982 0F28  
                   l1990 0F48                     l1974 0EEC                     l1966 0EBA  
                   l1958 0E9E                     l1896 0426                     l1888 0400  
                   l1992 0F58                     l1984 0F30                     l1968 0ECA  
                   l1976 0EF2                     l1898 042A                     l1994 0F58  
                   l1986 0F34                     l1978 0F02                     l1998 0F6C  
                   u2000 10CE                     u2001 10CA                     u2010 10E4  
                   u2011 10E0                     u2020 10F8                     u2100 0A90  
                   u2021 10F4                     u2101 0A8C                     u2030 1112  
                   u2110 0AA2                     u2031 110E                     u2111 0A9E  
                   u1320 15B4                     u1400 13B0                     u2040 115A  
                   u2200 0D40                     u2120 0AB2                     u1321 15B0  
                   u1401 13AC                     u2041 1156                     u2201 0D3C  
                   u2121 0AAE                     u1330 15D6                     u1410 13EA  
                   u2050 118A                     u2210 0D54                     u2130 0AE8  
                   u1331 15D2                     u1411 13E6                     u2051 1186  
                   u2211 0D50                     u2131 0AE4                     u1340 15FE  
                   u1420 140C                     u1500 015E                     u2060 11B6  
                   u2220 0D6E                     u2140 0AF8                     u2300 153C  
                   u1341 15FA                     u1421 1408                     u1501 015A  
                   u2061 11B2                     u2221 0D6A                     u2141 0AF4  
                   u2301 1538                     u1430 1434                     u1510 016E  
                   u2230 0DB6                     u2150 0C72                     u2070 0A2E  
                   u2310 155C                     u1431 1430                     u1511 016A  
                   u2231 0DB2                     u2071 0A2A                     u2311 1558  
                   u1360 1694                     u1440 1466                     u1600 02B0  
                   u1520 01A8                     u2240 0DE4                     u2160 0CCC  
                   u2080 0A40                     u2320 156C                     u2400 1322  
                   u1361 1690                     u1441 1462                     u1601 02AC  
                   u1521 01A4                     u2241 0DE0                     u2161 0CC8  
                   u2081 0A3C                     u2321 1568                     u2401 131E  
                   u1610 02C0                     u1530 01B6                     u1450 00D4  
                   u2250 0E1C                     u2170 0CEC                     u2090 0A50  
                   u1370 16E4                     u2410 135C                     u2330 11DC  
                   u1355 1654                     u1611 02BC                     u1531 01B2  
                   u1451 00D0                     u2251 0E18                     u2171 0CE8  
                   u2155 0C68                     u2091 0A4C                     u1371 16E0  
                   u2411 1358                     u2331 11D8                     u1700 041E  
                   u1620 02F2                     u1540 0222                     u1460 00E6  
                   u2180 0CFC                     u2260 149E                     u1380 171E  
                   u2420 136A                     u2340 11EA                     u2500 08C8  
                   u1701 041A                     u1621 02EE                     u1541 021E  
                   u1461 00E2                     u2181 0CF8                     u2261 149A  
                   u1381 171A                     u2421 1366                     u2341 11E6  
                   u2501 08C4                     u1390 138E                     u1710 043A  
                   u1630 0300                     u1550 023A                     u1470 00F6  
                   u2190 0D2A                     u2270 14D2                     u2350 1246  
                   u2510 08DC                     u2430 05D8                     u1391 138A  
                   u1711 0436                     u1631 02FC                     u1551 0234  
                   u1471 00F2                     u2191 0D26                     u2351 1242  
                   u2511 08D8                     u2431 05D4                     u1800 0510  
                   u1720 044A                     u1640 031E                     u1560 023C  
                   u1480 0136                     u2280 1500                     u2360 129C  
                   u2520 0940                     u2440 0602                     u1801 050C  
                   u1721 0446                     u1641 031A                     u1481 0132  
                   u2281 14FC                     u2361 1298                     u2521 093C  
                   u2441 05FE                     u1810 0530                     u1730 045A  
                   u1650 0356                     u1570 0264                     u1490 014C  
                   u2290 1514                     u2370 12E6                     u2530 0950  
                   u2450 0614                     u1811 052C                     u1731 0456  
                   u1651 0352                     u1571 0260                     u1491 0148  
                   u2291 1510                     u2275 14C8                     u2371 12E2  
                   u2531 094C                     u2451 0610                     u1820 0540  
                   u1740 0470                     u1660 039C                     u1580 0282  
                   u1900 0F18                     u2380 1304                     u2540 0964  
                   u2460 07C0                     u1821 053C                     u1741 046C  
                   u1661 0398                     u1581 027E                     u1901 0F14  
                   u2381 1300                     u2541 0960                     u2461 07BC  
                   u1830 055C                     u1750 0486                     u1670 03D2  
                   u1590 02A2                     u1910 0F58                     u2390 1314  
                   u2550 0A08                     u2470 084E                     u1831 0558  
                   u1751 0482                     u1671 03CE                     u1591 029E  
                   u1911 0F54                     u2391 1310                     u2551 0A04  
                   u2471 084A                     u1760 049A                     u1680 03E2  
                   u1920 0FCC                     u1840 0E54                     u2480 085E  
                   u1761 0496                     u1681 03DE                     u1921 0FC8  
                   u1841 0E50                     u2481 085A                     u1770 04B4  
                   u1690 040E                     u1930 0FEE                     u1850 0E66  
                   u2490 086E                     u1771 04B0                     u1691 040A  
                   u1931 0FEA                     u1851 0E62                     u2491 086A  
                   u1780 04EE                     u1940 1018                     u1860 0E76  
                   u1781 04EA                     u1941 1014                     u1861 0E72  
                   u1790 0500                     u1950 103C                     u1870 0EB8  
                   u1791 04FC                     u1951 1038                     u1871 0EB4  
                   u2567 08AE                     u1960 1052                     u1880 0ECA  
                   u1961 104E                     u1881 0EC6                     u2577 091A  
                   u1970 1070                     u1890 0EDA                     u1971 106C  
                   u1891 0ED6                     u2587 09A2                     u1980 1090  
                   u1981 108C                     u2597 09EE                     u1990 10A0  
                   u1991 109C                     i2l97 00AA              main@newfreq 004D  
                   _main 0570                     _byte 006E                     fsr2h 0FDA  
                   indf2 0FDF                     fsr2l 0FD9                     btemp 0072  
                   prodh 0FF4                     prodl 0FF3                     start 00B6  
        ___fldiv@new_exp 0023             ___param_bank 0000             ?_INTOSC_Init 0001  
                  ??_ISR 0001            ___fltol@sign1 0043          __end_of___aldiv 1488  
        __end_of___fladd 0570                    ?_main 0001          __end_of___fldiv 11CA  
        __end_of___flmul 0E3A          __end_of___fltol 158E          __end_of___lldiv 1632  
                  _PDC0H 0F90                    _PDC0L 0F91                    _RCREG 0FAE  
                  _TMR1H 0FCF                    _TMR1L 0FCE                    _SPBRG 0FAF  
    ___lmul@multiplicand 0008                    main@T 0050                    main@i 0064  
                  main@j 0060         __end_of_PWM_Init 175A                    tablat 0FF5  
                  ttemp5 0073                    ttemp6 0076                    ttemp7 007A  
                  status 0FD8                    wtemp8 0073              ?_USART_Init 001D  
        __initialization 177C             __end_of_main 0A14                   ??_main 0045  
          __activetblptr 0002                   i2l1500 004C                   i2l1502 0058  
                 i2l1510 0070                   i2l1520 00A8                   i2l1512 007E  
                 i2l1504 005A                   i2l1514 0082                   i2l1506 006A  
                 i2l1516 0086                   i2l1508 006E                   i2l1518 00A4  
                 i2l1490 0012                   i2l1492 0020                   i2l1494 0026  
                 i2l1496 0036                   _TMR1IF 7CF0                   _SPBRGH 0FB0  
          main@frequency 0061                   _PTPERH 0F95                   _PTPERL 0F96  
                 _TRISB0 7C98                   _TRISB1 7C99                   _TRISB4 7C9C  
                 _TRISA6 7C96                   _TRISA7 7C97         __end_of___xxtofl 137E  
          ??_Timer1_Init 0004                   ___lmul 16C6                ??___aldiv 000C  
              ??___fladd 0033                ??___fldiv 001A                ??___flmul 001A  
              ??___fltol 003F                ??___lldiv 0018                   clear_0 1782  
                 isa$std 0001                   main@Ag 0049             __mediumconst 1E92  
                 tblptrh 0FF7                   tblptrl 0FF6                   tblptru 0FF8  
           ___xxtofl@arg 000E             ___xxtofl@exp 000D             ___xxtofl@val 0004  
             __accesstop 0080  __end_of__initialization 1788            ___rparam_used 0001  
             ___fltol@f1 003B           __pcstackCOMRAM 0001      __end_of_Timer1_Init 177C  
              ?_PWM_Init 0001                  ?___lmul 0004           ___lmul@product 000C  
             ??_PWM_Init 0004                ?___xxtofl 0004                  _TMR_VAL 006C  
  USART_Init@valor_SPBRG 0025             ??_USART_Init 0021                  __Hparam 0000  
            _Timer1_Init 175A                  __Lparam 0000                  ___aldiv 137E  
                ___fladd 00BA                  ___fldiv 0E3A                  ___flmul 0A14  
                ___fltol 1488                  ___lldiv 158E                  __pcinit 177C  
                __ramtop 0100                  __ptext0 0570                  __ptext1 11CA  
                __ptext2 16C6                  __ptext3 1488                  __ptext4 0A14  
                __ptext5 0E3A                  __ptext6 00BA                  __ptext7 137E  
                __ptext8 1632                  __ptext9 158E                _T1CONbits 0FCD  
             ??___xxtofl 0008         ___aldiv@dividend 0004       __end_of_USART_Init 16C6  
                main@Vin 004F     end_of_initialization 1788            __Lmediumconst 1E92  
        ___lldiv@divisor 0014          ___lldiv@counter 001C                _RCSTAbits 0FAB  
       ___aldiv@quotient 000E                  postdec2 0FDD               _sine_table 1E93  
                postinc0 0FEE                  postinc2 0FDE              ___fladd@grs 003A  
          ___xxtofl@sign 000C                _TRISAbits 0F92              ___fldiv@grs 0025  
            ___fldiv@rem 001E              ___flmul@grs 001F                _TXSTAbits 0FAC  
             main@newVtg 0054       main@Output_Voltage 0047           __end_of___lmul 1730  
            _BAUDCONbits 0FB8            _data_received 0070      start_initialization 177C  
            __end_of_ISR 00B6            ??_INTOSC_Init 0004                 ??___lmul 000C  
              _Start_HSM 006F                ___fladd@a 002F                ___fladd@b 002B  
              ___fldiv@a 0016                ___fldiv@b 0012                ___flmul@a 0016  
              ___flmul@b 0012              __pbssCOMRAM 0065             ?_Timer1_Init 0001  
              __pintcode 0008            __pmediumconst 1E92                 ?___aldiv 0004  
               ?___fladd 002B                 ?___fldiv 0012                 ?___flmul 0012  
               ?___fltol 003B                 ?___lldiv 0010      __end_of_INTOSC_Init 179A  
            __smallconst 1E92          ___aldiv@divisor 0008          ___aldiv@counter 000C  
               _LATBbits 0F8A                 _IPR1bits 0F9F                 _PIE1bits 0F9D  
               i2u112_40 0020                 i2u112_41 001C                 i2u113_40 0036  
               i2u113_41 0032                 i2u114_40 0048                 i2u114_41 0044  
               i2u115_40 006A                 i2u115_41 0066                 i2u116_40 007E  
               i2u116_41 007A                 i2u117_40 0098                 i2u117_41 0090  
               i2u118_48 009A                 _PIR1bits 0F9E                _rx_buffer 0065  
               _PWM_Init 1730       USART_Init@baudrate 001D                main@angle 0057  
              main@count 0063        ___lmul@multiplier 0004                 __Hrparam 0000  
               __Lrparam 0000              _INTOSC_Init 1796                 ___xxtofl 11CA  
               __ptext10 175A                 __ptext11 1730                 __ptext12 1796  
               isa$xinst 0000                 int$flags 0072                 main@edge 0056  
             _INTCONbits 0FF2                 intlevel2 0000       __end_of_sine_table 1FFF  
       main@PWM_Duty_696 005A         main@PWM_Duty_697 005C         main@PWM_Duty_698 005E  
       ___lldiv@dividend 0010               _OSCCONbits 0FD3              _PWMCON0bits 0F86  
            _sine_table1 006A               _PTCON0bits 0F9A               _PTCON1bits 0F99  
       ___lldiv@quotient 0018             ___aldiv@sign 000D            ___fladd@signs 0037  
           ___fladd@aexp 0038             ___fladd@bexp 0039             main@PWM_Duty 0058  
             _USART_Init 1632  
